TN:
SF:/home/user/Desktop/assgn5/problem1/include/catch.hpp
FN:503,_ZN5Catch14SourceLineInfoC2EPKcm
FN:616,_ZN5Catch9StringRefC2Ev
FN:620,_ZN5Catch9StringRefC2EPKcm
FN:625,_ZN5Catch9StringRefC2ERKNSt7__cxx1112basic_stringIcSt11char_traitsIcESaIcEEE
FN:630,_ZNK5Catch9StringRefcvNSt7__cxx1112basic_stringIcSt11char_traitsIcESaIcEEEEv
FN:640,_ZNK5Catch9StringRefixEm
FN:646,_ZNK5Catch9StringRef5emptyEv
FN:649,_ZNK5Catch9StringRef4sizeEv
FN:666,_ZNK5Catch9StringRef16isNullTerminatedEv
FN:671,_ZNK5Catch9StringRef5beginEv
FN:672,_ZNK5Catch9StringRef3endEv
FN:678,_ZN5Catchli3_srEPKcm
FN:683,_Zli9_catch_srPKcm
FN:1386,_ZN5Catch11isFalseTestEi
FN:1448,_ZN5Catch20ReusableStringStreamlsINS_16TestCaseTracking11TrackerBase10CycleStateEEERS0_RKT_
FN:1448,_ZN5Catch20ReusableStringStreamlsIA57_cEERS0_RKT_
FN:1448,_ZN5Catch20ReusableStringStreamlsIA47_cEERS0_RKT_
FN:1448,_ZN5Catch20ReusableStringStreamlsIA22_cEERS0_RKT_
FN:1448,_ZN5Catch20ReusableStringStreamlsIA18_cEERS0_RKT_
FN:1448,_ZN5Catch20ReusableStringStreamlsIA66_cEERS0_RKT_
FN:1448,_ZN5Catch20ReusableStringStreamlsIFRSt8ios_baseS3_EEERS0_RKT_
FN:1448,_ZN5Catch20ReusableStringStreamlsIA32_cEERS0_RKT_
FN:1448,_ZN5Catch20ReusableStringStreamlsIyEERS0_RKT_
FN:1448,_ZN5Catch20ReusableStringStreamlsIA53_cEERS0_RKT_
FN:1448,_ZN5Catch20ReusableStringStreamlsIA60_cEERS0_RKT_
FN:1448,_ZN5Catch20ReusableStringStreamlsIA23_cEERS0_RKT_
FN:1448,_ZN5Catch20ReusableStringStreamlsIA17_cEERS0_RKT_
FN:1448,_ZN5Catch20ReusableStringStreamlsIA21_cEERS0_RKT_
FN:1448,_ZN5Catch20ReusableStringStreamlsIA19_cEERS0_RKT_
FN:1448,_ZN5Catch20ReusableStringStreamlsIA44_cEERS0_RKT_
FN:1448,_ZN5Catch20ReusableStringStreamlsISt8_SetfillIcEEERS0_RKT_
FN:1448,_ZN5Catch20ReusableStringStreamlsIcEERS0_RKT_
FN:1448,_ZN5Catch20ReusableStringStreamlsIA12_cEERS0_RKT_
FN:1448,_ZN5Catch20ReusableStringStreamlsIA3_cEERS0_RKT_
FN:1448,_ZN5Catch20ReusableStringStreamlsIA59_cEERS0_RKT_
FN:1448,_ZN5Catch20ReusableStringStreamlsIPKcEERS0_RKT_
FN:1448,_ZN5Catch20ReusableStringStreamlsIA20_cEERS0_RKT_
FN:1448,_ZN5Catch20ReusableStringStreamlsIA8_cEERS0_RKT_
FN:1448,_ZN5Catch20ReusableStringStreamlsIA37_cEERS0_RKT_
FN:1448,_ZN5Catch20ReusableStringStreamlsImEERS0_RKT_
FN:1448,_ZN5Catch20ReusableStringStreamlsIdEERS0_RKT_
FN:1448,_ZN5Catch20ReusableStringStreamlsISt13_SetprecisionEERS0_RKT_
FN:1448,_ZN5Catch20ReusableStringStreamlsIfEERS0_RKT_
FN:1448,_ZN5Catch20ReusableStringStreamlsIjEERS0_RKT_
FN:1448,_ZN5Catch20ReusableStringStreamlsIxEERS0_RKT_
FN:1448,_ZN5Catch20ReusableStringStreamlsIA7_cEERS0_RKT_
FN:1448,_ZN5Catch20ReusableStringStreamlsIA25_cEERS0_RKT_
FN:1448,_ZN5Catch20ReusableStringStreamlsIA2_cEERS0_RKT_
FN:1448,_ZN5Catch20ReusableStringStreamlsINS_5clara8TextFlow6ColumnEEERS0_RKT_
FN:1448,_ZN5Catch20ReusableStringStreamlsISt5_SetwEERS0_RKT_
FN:1448,_ZN5Catch20ReusableStringStreamlsIA4_cEERS0_RKT_
FN:1448,_ZN5Catch20ReusableStringStreamlsIA40_cEERS0_RKT_
FN:1448,_ZN5Catch20ReusableStringStreamlsINS_14SourceLineInfoEEERS0_RKT_
FN:1448,_ZN5Catch20ReusableStringStreamlsIA31_cEERS0_RKT_
FN:1448,_ZN5Catch20ReusableStringStreamlsIA16_cEERS0_RKT_
FN:1448,_ZN5Catch20ReusableStringStreamlsIA26_cEERS0_RKT_
FN:1448,_ZN5Catch20ReusableStringStreamlsINS_14LazyExpressionEEERS0_RKT_
FN:1448,_ZN5Catch20ReusableStringStreamlsIA5_cEERS0_RKT_
FN:1448,_ZN5Catch20ReusableStringStreamlsINS_9StringRefEEERS0_RKT_
FN:1448,_ZN5Catch20ReusableStringStreamlsIA13_cEERS0_RKT_
FN:1448,_ZN5Catch20ReusableStringStreamlsIA9_cEERS0_RKT_
FN:1448,_ZN5Catch20ReusableStringStreamlsIA36_cEERS0_RKT_
FN:1448,_ZN5Catch20ReusableStringStreamlsIA1_cEERS0_RKT_
FN:1448,_ZN5Catch20ReusableStringStreamlsIA27_cEERS0_RKT_
FN:1448,_ZN5Catch20ReusableStringStreamlsIA15_cEERS0_RKT_
FN:1448,_ZN5Catch20ReusableStringStreamlsINSt7__cxx1112basic_stringIcSt11char_traitsIcESaIcEEEEERS0_RKT_
FN:1452,_ZN5Catch20ReusableStringStream3getEv
FN:1617,_ZN5Catch11StringMakerINS_14SourceLineInfoEvE7convertIS1_EENSt9enable_ifIXsrNS_6Detail18IsStreamInsertableIT_EE5valueENSt7__cxx1112basic_stringIcSt11char_traitsIcESaIcEEEE4typeERKS7_
FN:1642,_ZN5Catch6Detail9stringifyINS_14SourceLineInfoEEENSt7__cxx1112basic_stringIcSt11char_traitsIcESaIcEEERKT_
FN:1642,_ZN5Catch6Detail9stringifyIaEENSt7__cxx1112basic_stringIcSt11char_traitsIcESaIcEEERKT_
FN:1642,_ZN5Catch6Detail9stringifyINSt7__cxx1112basic_stringIcSt11char_traitsIcESaIcEEEEES7_RKT_
FN:1642,_ZN5Catch6Detail9stringifyIjEENSt7__cxx1112basic_stringIcSt11char_traitsIcESaIcEEERKT_
FN:1642,_ZN5Catch6Detail9stringifyIdEENSt7__cxx1112basic_stringIcSt11char_traitsIcESaIcEEERKT_
FN:1642,_ZN5Catch6Detail9stringifyINSt7__cxx1112basic_stringIwSt11char_traitsIwESaIwEEEEENS3_IcS4_IcESaIcEEERKT_
FN:1642,_ZN5Catch6Detail9stringifyIbEENSt7__cxx1112basic_stringIcSt11char_traitsIcESaIcEEERKT_
FN:1642,_ZN5Catch6Detail9stringifyIyEENSt7__cxx1112basic_stringIcSt11char_traitsIcESaIcEEERKT_
FN:1642,_ZN5Catch6Detail9stringifyIcEENSt7__cxx1112basic_stringIcSt11char_traitsIcESaIcEEERKT_
FN:1642,_ZN5Catch6Detail9stringifyIxEENSt7__cxx1112basic_stringIcSt11char_traitsIcESaIcEEERKT_
FN:2201,_ZNK5Catch20ITransientExpression18isBinaryExpressionEv
FN:2202,_ZNK5Catch20ITransientExpression9getResultEv
FN:2205,_ZN5Catch20ITransientExpressionC2Ebb
FN:2227,_ZNK5Catch10BinaryExprIbbE29streamReconstructedExpressionERSo
FN:2233,_ZN5Catch10BinaryExprIbbEC2EbbNS_9StringRefEb
FN:2339,_ZN5Catch7ExprLhsIbEC2Eb
FN:2345,_ZN5Catch7ExprLhsIbEeqEb
FN:2418,_ZN5Catch10DecomposerleEb
FN:2558,_ZN5Catch16AssertionHandlerD2Ev
FN:2631,_ZN5Catch14MessageBuilderlsINSt7__cxx1112basic_stringIcSt11char_traitsIcESaIcEEEEERS0_RKT_
FN:3103,_ZN5Catch6Detail6ApproxC2IyvEERKT_
FN:3103,_ZN5Catch6Detail6ApproxC2IivEERKT_
FN:3103,_ZN5Catch6Detail6ApproxC2IevEERKT_
FN:3243,_ZN5Catch8Matchers4Impl18MatcherUntypedBaseC2Ev
FN:3401,_ZN5Catch8Matchers9Exception23ExceptionMessageMatcherC2ERKNSt7__cxx1112basic_stringIcSt11char_traitsIcESaIcEEE
FN:3773,_ZN5Catch9MatchExprINSt7__cxx1112basic_stringIcSt11char_traitsIcESaIcEEERKNS_8Matchers4Impl11MatcherBaseIS6_EEEC2ERKS6_SC_RKNS_9StringRefE
FN:3780,_ZNK5Catch9MatchExprINSt7__cxx1112basic_stringIcSt11char_traitsIcESaIcEEERKNS_8Matchers4Impl11MatcherBaseIS6_EEE29streamReconstructedExpressionERSo
FN:3875,_ZN5Catch15throw_exceptionISt11logic_errorEEvRKT_
FN:3875,_ZN5Catch15throw_exceptionISt13runtime_errorEEvRKT_
FN:3875,_ZN5Catch15throw_exceptionISt12domain_errorEEvRKT_
FN:4374,_ZN5Catch24getCurrentMutableContextEv
FN:4382,_ZN5Catch17getCurrentContextEv
FN:4404,_ZN5Catch6OptionINS_11TestRunInfoEEC2Ev
FN:4404,_ZN5Catch6OptionINS_9GroupInfoEEC2Ev
FN:4404,_ZN5Catch6OptionINS_12TestCaseInfoEEC2Ev
FN:4404,_ZN5Catch6OptionImEC2Ev
FN:4404,_ZN5Catch6OptionINS_15AssertionResultEEC2Ev
FN:4412,_ZN5Catch6OptionINS_9GroupInfoEED2Ev
FN:4412,_ZN5Catch6OptionINS_12TestCaseInfoEED2Ev
FN:4412,_ZN5Catch6OptionINS_11TestRunInfoEED2Ev
FN:4412,_ZN5Catch6OptionINS_15AssertionResultEED2Ev
FN:4412,_ZN5Catch6OptionImED2Ev
FN:4424,_ZN5Catch6OptionImEaSERKm
FN:4424,_ZN5Catch6OptionINS_9GroupInfoEEaSERKS1_
FN:4424,_ZN5Catch6OptionINS_11TestRunInfoEEaSERKS1_
FN:4424,_ZN5Catch6OptionINS_12TestCaseInfoEEaSERKS1_
FN:4424,_ZN5Catch6OptionINS_15AssertionResultEEaSERKS1_
FN:4430,_ZN5Catch6OptionINS_15AssertionResultEE5resetEv
FN:4430,_ZN5Catch6OptionINS_9GroupInfoEE5resetEv
FN:4430,_ZN5Catch6OptionImE5resetEv
FN:4430,_ZN5Catch6OptionINS_11TestRunInfoEE5resetEv
FN:4430,_ZN5Catch6OptionINS_12TestCaseInfoEE5resetEv
FN:4436,_ZN5Catch6OptionImEdeEv
FN:4437,_ZNK5Catch6OptionINS_15AssertionResultEEdeEv
FN:4438,_ZN5Catch6OptionINS_12TestCaseInfoEEptEv
FN:4438,_ZN5Catch6OptionINS_9GroupInfoEEptEv
FN:4438,_ZN5Catch6OptionINS_11TestRunInfoEEptEv
FN:4441,_ZNK5Catch6OptionImE7valueOrERKm
FN:4445,_ZNK5Catch6OptionImE4someEv
FN:4449,_ZNK5Catch6OptionImEcvbEv
FN:4563,_ZN5Catch11SimplePcg32C2Ev
FN:5084,_ZN5Catch15WildcardPatternD2Ev
FN:5084,_ZN5Catch15WildcardPatternD0Ev
FN:5236,_ZN5Catch14TestSpecParser16addCharToPatternEc
FN:5315,_ZN5Catch6ConfigD2Ev
FN:5315,_ZN5Catch6ConfigD0Ev
FN:5494,_ZN5Catch8LazyStatINS_9GroupInfoEEaSERKS1_
FN:5494,_ZN5Catch8LazyStatINS_12TestCaseInfoEEaSERKS1_
FN:5494,_ZN5Catch8LazyStatINS_11TestRunInfoEEaSERKS1_
FN:5499,_ZN5Catch8LazyStatINS_11TestRunInfoEE5resetEv
FN:5499,_ZN5Catch8LazyStatINS_9GroupInfoEE5resetEv
FN:5499,_ZN5Catch8LazyStatINS_12TestCaseInfoEE5resetEv
FN:5525,_ZN5Catch14AssertionStatsC2ERKS0_
FN:5541,_ZN5Catch12SectionStatsC2ERKS0_
FN:5543,_ZN5Catch12SectionStatsaSERKS0_
FN:5560,_ZN5Catch13TestCaseStatsC2ERKS0_
FN:5579,_ZN5Catch14TestGroupStatsC2ERKS0_
FN:5595,_ZN5Catch12TestRunStatsC2ERKS0_
FN:5645,_ZN5Catch18IStreamingReporterD2Ev
FN:5645,_ZN5Catch18IStreamingReporterD0Ev
FN:5655,_ZN5Catch18IStreamingReporter22reportInvalidArgumentsERKNSt7__cxx1112basic_stringIcSt11char_traitsIcESaIcEEE
FN:5731,_ZN5Catch21StreamingReporterBaseINS_11XmlReporterEEC2ERKNS_14ReporterConfigE
FN:5731,_ZN5Catch21StreamingReporterBaseINS_15ConsoleReporterEEC2ERKNS_14ReporterConfigE
FN:5731,_ZN5Catch21StreamingReporterBaseINS_15CompactReporterEEC2ERKNS_14ReporterConfigE
FN:5731,_ZN5Catch21StreamingReporterBaseINS_21TestEventListenerBaseEEC2ERKNS_14ReporterConfigE
FN:5740,_ZNK5Catch21StreamingReporterBaseINS_15CompactReporterEE14getPreferencesEv
FN:5740,_ZNK5Catch21StreamingReporterBaseINS_15ConsoleReporterEE14getPreferencesEv
FN:5740,_ZNK5Catch21StreamingReporterBaseINS_21TestEventListenerBaseEE14getPreferencesEv
FN:5740,_ZNK5Catch21StreamingReporterBaseINS_11XmlReporterEE14getPreferencesEv
FN:5744,_ZN5Catch21StreamingReporterBaseINS_15ConsoleReporterEE23getSupportedVerbositiesEv
FN:5744,_ZN5Catch21StreamingReporterBaseINS_15CompactReporterEE23getSupportedVerbositiesEv
FN:5744,_ZN5Catch21StreamingReporterBaseINS_11XmlReporterEE23getSupportedVerbositiesEv
FN:5748,_ZN5Catch21StreamingReporterBaseINS_15CompactReporterEED2Ev
FN:5748,_ZN5Catch21StreamingReporterBaseINS_21TestEventListenerBaseEED2Ev
FN:5748,_ZN5Catch21StreamingReporterBaseINS_21TestEventListenerBaseEED0Ev
FN:5748,_ZN5Catch21StreamingReporterBaseINS_11XmlReporterEED2Ev
FN:5748,_ZN5Catch21StreamingReporterBaseINS_11XmlReporterEED0Ev
FN:5748,_ZN5Catch21StreamingReporterBaseINS_15CompactReporterEED0Ev
FN:5748,_ZN5Catch21StreamingReporterBaseINS_15ConsoleReporterEED0Ev
FN:5748,_ZN5Catch21StreamingReporterBaseINS_15ConsoleReporterEED2Ev
FN:5750,_ZN5Catch21StreamingReporterBaseINS_11XmlReporterEE19noMatchingTestCasesERKNSt7__cxx1112basic_stringIcSt11char_traitsIcESaIcEEE
FN:5750,_ZN5Catch21StreamingReporterBaseINS_15ConsoleReporterEE19noMatchingTestCasesERKNSt7__cxx1112basic_stringIcSt11char_traitsIcESaIcEEE
FN:5750,_ZN5Catch21StreamingReporterBaseINS_15CompactReporterEE19noMatchingTestCasesERKNSt7__cxx1112basic_stringIcSt11char_traitsIcESaIcEEE
FN:5750,_ZN5Catch21StreamingReporterBaseINS_21TestEventListenerBaseEE19noMatchingTestCasesERKNSt7__cxx1112basic_stringIcSt11char_traitsIcESaIcEEE
FN:5752,_ZN5Catch21StreamingReporterBaseINS_15ConsoleReporterEE22reportInvalidArgumentsERKNSt7__cxx1112basic_stringIcSt11char_traitsIcESaIcEEE
FN:5752,_ZN5Catch21StreamingReporterBaseINS_21TestEventListenerBaseEE22reportInvalidArgumentsERKNSt7__cxx1112basic_stringIcSt11char_traitsIcESaIcEEE
FN:5752,_ZN5Catch21StreamingReporterBaseINS_15CompactReporterEE22reportInvalidArgumentsERKNSt7__cxx1112basic_stringIcSt11char_traitsIcESaIcEEE
FN:5752,_ZN5Catch21StreamingReporterBaseINS_11XmlReporterEE22reportInvalidArgumentsERKNSt7__cxx1112basic_stringIcSt11char_traitsIcESaIcEEE
FN:5754,_ZN5Catch21StreamingReporterBaseINS_11XmlReporterEE15testRunStartingERKNS_11TestRunInfoE
FN:5754,_ZN5Catch21StreamingReporterBaseINS_21TestEventListenerBaseEE15testRunStartingERKNS_11TestRunInfoE
FN:5754,_ZN5Catch21StreamingReporterBaseINS_15CompactReporterEE15testRunStartingERKNS_11TestRunInfoE
FN:5754,_ZN5Catch21StreamingReporterBaseINS_15ConsoleReporterEE15testRunStartingERKNS_11TestRunInfoE
FN:5758,_ZN5Catch21StreamingReporterBaseINS_15ConsoleReporterEE17testGroupStartingERKNS_9GroupInfoE
FN:5758,_ZN5Catch21StreamingReporterBaseINS_15CompactReporterEE17testGroupStartingERKNS_9GroupInfoE
FN:5758,_ZN5Catch21StreamingReporterBaseINS_21TestEventListenerBaseEE17testGroupStartingERKNS_9GroupInfoE
FN:5758,_ZN5Catch21StreamingReporterBaseINS_11XmlReporterEE17testGroupStartingERKNS_9GroupInfoE
FN:5762,_ZN5Catch21StreamingReporterBaseINS_15ConsoleReporterEE16testCaseStartingERKNS_12TestCaseInfoE
FN:5762,_ZN5Catch21StreamingReporterBaseINS_21TestEventListenerBaseEE16testCaseStartingERKNS_12TestCaseInfoE
FN:5762,_ZN5Catch21StreamingReporterBaseINS_11XmlReporterEE16testCaseStartingERKNS_12TestCaseInfoE
FN:5762,_ZN5Catch21StreamingReporterBaseINS_15CompactReporterEE16testCaseStartingERKNS_12TestCaseInfoE
FN:5765,_ZN5Catch21StreamingReporterBaseINS_15CompactReporterEE15sectionStartingERKNS_11SectionInfoE
FN:5765,_ZN5Catch21StreamingReporterBaseINS_11XmlReporterEE15sectionStartingERKNS_11SectionInfoE
FN:5765,_ZN5Catch21StreamingReporterBaseINS_15ConsoleReporterEE15sectionStartingERKNS_11SectionInfoE
FN:5765,_ZN5Catch21StreamingReporterBaseINS_21TestEventListenerBaseEE15sectionStartingERKNS_11SectionInfoE
FN:5769,_ZN5Catch21StreamingReporterBaseINS_11XmlReporterEE12sectionEndedERKNS_12SectionStatsE
FN:5769,_ZN5Catch21StreamingReporterBaseINS_21TestEventListenerBaseEE12sectionEndedERKNS_12SectionStatsE
FN:5769,_ZN5Catch21StreamingReporterBaseINS_15ConsoleReporterEE12sectionEndedERKNS_12SectionStatsE
FN:5769,_ZN5Catch21StreamingReporterBaseINS_15CompactReporterEE12sectionEndedERKNS_12SectionStatsE
FN:5772,_ZN5Catch21StreamingReporterBaseINS_15ConsoleReporterEE13testCaseEndedERKNS_13TestCaseStatsE
FN:5772,_ZN5Catch21StreamingReporterBaseINS_11XmlReporterEE13testCaseEndedERKNS_13TestCaseStatsE
FN:5772,_ZN5Catch21StreamingReporterBaseINS_21TestEventListenerBaseEE13testCaseEndedERKNS_13TestCaseStatsE
FN:5772,_ZN5Catch21StreamingReporterBaseINS_15CompactReporterEE13testCaseEndedERKNS_13TestCaseStatsE
FN:5775,_ZN5Catch21StreamingReporterBaseINS_21TestEventListenerBaseEE14testGroupEndedERKNS_14TestGroupStatsE
FN:5775,_ZN5Catch21StreamingReporterBaseINS_11XmlReporterEE14testGroupEndedERKNS_14TestGroupStatsE
FN:5775,_ZN5Catch21StreamingReporterBaseINS_15ConsoleReporterEE14testGroupEndedERKNS_14TestGroupStatsE
FN:5775,_ZN5Catch21StreamingReporterBaseINS_15CompactReporterEE14testGroupEndedERKNS_14TestGroupStatsE
FN:5778,_ZN5Catch21StreamingReporterBaseINS_15ConsoleReporterEE12testRunEndedERKNS_12TestRunStatsE
FN:5778,_ZN5Catch21StreamingReporterBaseINS_21TestEventListenerBaseEE12testRunEndedERKNS_12TestRunStatsE
FN:5778,_ZN5Catch21StreamingReporterBaseINS_11XmlReporterEE12testRunEndedERKNS_12TestRunStatsE
FN:5778,_ZN5Catch21StreamingReporterBaseINS_15CompactReporterEE12testRunEndedERKNS_12TestRunStatsE
FN:5784,_ZN5Catch21StreamingReporterBaseINS_15CompactReporterEE8skipTestERKNS_12TestCaseInfoE
FN:5784,_ZN5Catch21StreamingReporterBaseINS_15ConsoleReporterEE8skipTestERKNS_12TestCaseInfoE
FN:5784,_ZN5Catch21StreamingReporterBaseINS_11XmlReporterEE8skipTestERKNS_12TestCaseInfoE
FN:5784,_ZN5Catch21StreamingReporterBaseINS_21TestEventListenerBaseEE8skipTestERKNS_12TestCaseInfoE
FN:5804,_ZN5Catch22CumulativeReporterBaseINS_13JunitReporterEE4NodeINS_14TestGroupStatsENS3_INS_13TestCaseStatsENS2_11SectionNodeEEEEC2ERKS4_
FN:5804,_ZN5Catch22CumulativeReporterBaseINS_13JunitReporterEE4NodeINS_13TestCaseStatsENS2_11SectionNodeEEC2ERKS4_
FN:5804,_ZN5Catch22CumulativeReporterBaseINS_13JunitReporterEE4NodeINS_12TestRunStatsENS3_INS_14TestGroupStatsENS3_INS_13TestCaseStatsENS2_11SectionNodeEEEEEEC2ERKS4_
FN:5805,_ZN5Catch22CumulativeReporterBaseINS_13JunitReporterEE4NodeINS_14TestGroupStatsENS3_INS_13TestCaseStatsENS2_11SectionNodeEEEED2Ev
FN:5805,_ZN5Catch22CumulativeReporterBaseINS_13JunitReporterEE4NodeINS_14TestGroupStatsENS3_INS_13TestCaseStatsENS2_11SectionNodeEEEED0Ev
FN:5805,_ZN5Catch22CumulativeReporterBaseINS_13JunitReporterEE4NodeINS_13TestCaseStatsENS2_11SectionNodeEED2Ev
FN:5805,_ZN5Catch22CumulativeReporterBaseINS_13JunitReporterEE4NodeINS_13TestCaseStatsENS2_11SectionNodeEED0Ev
FN:5805,_ZN5Catch22CumulativeReporterBaseINS_13JunitReporterEE4NodeINS_12TestRunStatsENS3_INS_14TestGroupStatsENS3_INS_13TestCaseStatsENS2_11SectionNodeEEEEEED2Ev
FN:5805,_ZN5Catch22CumulativeReporterBaseINS_13JunitReporterEE4NodeINS_12TestRunStatsENS3_INS_14TestGroupStatsENS3_INS_13TestCaseStatsENS2_11SectionNodeEEEEEED0Ev
FN:5812,_ZN5Catch22CumulativeReporterBaseINS_13JunitReporterEE11SectionNodeC2ERKNS_12SectionStatsE
FN:5813,_ZN5Catch22CumulativeReporterBaseINS_13JunitReporterEE11SectionNodeD2Ev
FN:5813,_ZN5Catch22CumulativeReporterBaseINS_13JunitReporterEE11SectionNodeD0Ev
FN:5832,_ZN5Catch22CumulativeReporterBaseINS_13JunitReporterEE13BySectionInfoC2ERKNS_11SectionInfoE
FN:5833,_ZN5Catch22CumulativeReporterBaseINS_13JunitReporterEE13BySectionInfoC2ERKS3_
FN:5834,_ZNK5Catch22CumulativeReporterBaseINS_13JunitReporterEE13BySectionInfoclERKSt10shared_ptrINS2_11SectionNodeEE
FN:5848,_ZN5Catch22CumulativeReporterBaseINS_13JunitReporterEEC2ERKNS_14ReporterConfigE
FN:5856,_ZN5Catch22CumulativeReporterBaseINS_13JunitReporterEED0Ev
FN:5856,_ZN5Catch22CumulativeReporterBaseINS_13JunitReporterEED2Ev
FN:5858,_ZNK5Catch22CumulativeReporterBaseINS_13JunitReporterEE14getPreferencesEv
FN:5862,_ZN5Catch22CumulativeReporterBaseINS_13JunitReporterEE23getSupportedVerbositiesEv
FN:5866,_ZN5Catch22CumulativeReporterBaseINS_13JunitReporterEE15testRunStartingERKNS_11TestRunInfoE
FN:5867,_ZN5Catch22CumulativeReporterBaseINS_13JunitReporterEE17testGroupStartingERKNS_9GroupInfoE
FN:5869,_ZN5Catch22CumulativeReporterBaseINS_13JunitReporterEE16testCaseStartingERKNS_12TestCaseInfoE
FN:5871,_ZN5Catch22CumulativeReporterBaseINS_13JunitReporterEE15sectionStartingERKNS_11SectionInfoE
FN:5896,_ZN5Catch22CumulativeReporterBaseINS_13JunitReporterEE17assertionStartingERKNS_13AssertionInfoE
FN:5898,_ZN5Catch22CumulativeReporterBaseINS_13JunitReporterEE14assertionEndedERKNS_14AssertionStatsE
FN:5910,_ZN5Catch22CumulativeReporterBaseINS_13JunitReporterEE12sectionEndedERKNS_12SectionStatsE
FN:5916,_ZN5Catch22CumulativeReporterBaseINS_13JunitReporterEE13testCaseEndedERKNS_13TestCaseStatsE
FN:5927,_ZN5Catch22CumulativeReporterBaseINS_13JunitReporterEE14testGroupEndedERKNS_14TestGroupStatsE
FN:5932,_ZN5Catch22CumulativeReporterBaseINS_13JunitReporterEE12testRunEndedERKNS_12TestRunStatsE
FN:5940,_ZN5Catch22CumulativeReporterBaseINS_13JunitReporterEE8skipTestERKNS_12TestCaseInfoE
FN:5958,_ZN5Catch14getLineOfCharsILc126EEEPKcv
FN:5958,_ZN5Catch14getLineOfCharsILc46EEEPKcv
FN:5958,_ZN5Catch14getLineOfCharsILc45EEEPKcv
FN:6048,_ZNK5Catch17ReporterRegistrarINS_15ConsoleReporterEE15ReporterFactory6createERKNS_14ReporterConfigE
FN:6048,_ZNK5Catch17ReporterRegistrarINS_13JunitReporterEE15ReporterFactory6createERKNS_14ReporterConfigE
FN:6048,_ZNK5Catch17ReporterRegistrarINS_11XmlReporterEE15ReporterFactory6createERKNS_14ReporterConfigE
FN:6048,_ZNK5Catch17ReporterRegistrarINS_15CompactReporterEE15ReporterFactory6createERKNS_14ReporterConfigE
FN:6052,_ZNK5Catch17ReporterRegistrarINS_11XmlReporterEE15ReporterFactory14getDescriptionB5cxx11Ev
FN:6052,_ZNK5Catch17ReporterRegistrarINS_15ConsoleReporterEE15ReporterFactory14getDescriptionB5cxx11Ev
FN:6052,_ZNK5Catch17ReporterRegistrarINS_13JunitReporterEE15ReporterFactory14getDescriptionB5cxx11Ev
FN:6052,_ZNK5Catch17ReporterRegistrarINS_15CompactReporterEE15ReporterFactory14getDescriptionB5cxx11Ev
FN:6059,_ZN5Catch17ReporterRegistrarINS_13JunitReporterEEC2ERKNSt7__cxx1112basic_stringIcSt11char_traitsIcESaIcEEE
FN:6059,_ZN5Catch17ReporterRegistrarINS_15CompactReporterEEC2ERKNSt7__cxx1112basic_stringIcSt11char_traitsIcESaIcEEE
FN:6059,_ZN5Catch17ReporterRegistrarINS_11XmlReporterEEC2ERKNSt7__cxx1112basic_stringIcSt11char_traitsIcESaIcEEE
FN:6059,_ZN5Catch17ReporterRegistrarINS_15ConsoleReporterEEC2ERKNSt7__cxx1112basic_stringIcSt11char_traitsIcESaIcEEE
FN:6257,_ZN5Catch9XmlWriter13ScopedElement14writeAttributeIjEERS1_RKNSt7__cxx1112basic_stringIcSt11char_traitsIcESaIcEEERKT_
FN:6257,_ZN5Catch9XmlWriter13ScopedElement14writeAttributeINSt7__cxx1112basic_stringIcSt11char_traitsIcESaIcEEEEERS1_RKS8_RKT_
FN:6257,_ZN5Catch9XmlWriter13ScopedElement14writeAttributeIA12_cEERS1_RKNSt7__cxx1112basic_stringIcSt11char_traitsIcESaIcEEERKT_
FN:6257,_ZN5Catch9XmlWriter13ScopedElement14writeAttributeIA31_cEERS1_RKNSt7__cxx1112basic_stringIcSt11char_traitsIcESaIcEEERKT_
FN:6257,_ZN5Catch9XmlWriter13ScopedElement14writeAttributeImEERS1_RKNSt7__cxx1112basic_stringIcSt11char_traitsIcESaIcEEERKT_
FN:6257,_ZN5Catch9XmlWriter13ScopedElement14writeAttributeIbEERS1_RKNSt7__cxx1112basic_stringIcSt11char_traitsIcESaIcEEERKT_
FN:6257,_ZN5Catch9XmlWriter13ScopedElement14writeAttributeIdEERS1_RKNSt7__cxx1112basic_stringIcSt11char_traitsIcESaIcEEERKT_
FN:6257,_ZN5Catch9XmlWriter13ScopedElement14writeAttributeIA8_cEERS1_RKNSt7__cxx1112basic_stringIcSt11char_traitsIcESaIcEEERKT_
FN:6284,_ZN5Catch9XmlWriter14writeAttributeIPKcEERS0_RKNSt7__cxx1112basic_stringIcSt11char_traitsIcESaIcEEERKT_
FN:6284,_ZN5Catch9XmlWriter14writeAttributeIA12_cEERS0_RKNSt7__cxx1112basic_stringIcSt11char_traitsIcESaIcEEERKT_
FN:6284,_ZN5Catch9XmlWriter14writeAttributeIjEERS0_RKNSt7__cxx1112basic_stringIcSt11char_traitsIcESaIcEEERKT_
FN:6284,_ZN5Catch9XmlWriter14writeAttributeIA1_cEERS0_RKNSt7__cxx1112basic_stringIcSt11char_traitsIcESaIcEEERKT_
FN:6284,_ZN5Catch9XmlWriter14writeAttributeIA31_cEERS0_RKNSt7__cxx1112basic_stringIcSt11char_traitsIcESaIcEEERKT_
FN:6284,_ZN5Catch9XmlWriter14writeAttributeIA4_cEERS0_RKNSt7__cxx1112basic_stringIcSt11char_traitsIcESaIcEEERKT_
FN:6284,_ZN5Catch9XmlWriter14writeAttributeImEERS0_RKNSt7__cxx1112basic_stringIcSt11char_traitsIcESaIcEEERKT_
FN:6284,_ZN5Catch9XmlWriter14writeAttributeIA5_cEERS0_RKNSt7__cxx1112basic_stringIcSt11char_traitsIcESaIcEEERKT_
FN:6284,_ZN5Catch9XmlWriter14writeAttributeINS_9StringRefEEERS0_RKNSt7__cxx1112basic_stringIcSt11char_traitsIcESaIcEEERKT_
FN:6284,_ZN5Catch9XmlWriter14writeAttributeIA8_cEERS0_RKNSt7__cxx1112basic_stringIcSt11char_traitsIcESaIcEEERKT_
FN:6284,_ZN5Catch9XmlWriter14writeAttributeIdEERS0_RKNSt7__cxx1112basic_stringIcSt11char_traitsIcESaIcEEERKT_
FN:7476,_ZN5Catch16TestCaseTrackingeqERKNS0_15NameAndLocationES3_
FN:7490,_ZN5Catch16TestCaseTracking8ITrackerC2ERKNS0_15NameAndLocationE
FN:7495,_ZNK5Catch16TestCaseTracking8ITracker15nameAndLocationEv
FN:7573,_ZNK5Catch16TestCaseTracking11TrackerBase10hasStartedEv
FN:7862,_ZN12_GLOBAL__N_116marginComparisonEddd
FN:7871,_ZN5Catch6Detail6ApproxC2Ed
FN:7878,_ZN5Catch6Detail6Approx6customEv
FN:7882,_ZNK5Catch6Detail6ApproxngEv
FN:7888,_ZNK5Catch6Detail6Approx8toStringB5cxx11Ev
FN:7894,_ZNK5Catch6Detail6Approx22equalityComparisonImplEd
FN:7901,_ZN5Catch6Detail6Approx9setMarginEd
FN:7908,_ZN5Catch6Detail6Approx10setEpsilonEd
FN:7918,_ZN5Catch8literalsli2_aEe
FN:7921,_ZN5Catch8literalsli2_aEy
FN:7926,_ZN5Catch11StringMakerINS_6Detail6ApproxEvE7convertB5cxx11ERKS2_
FN:8017,_ZN5Catch21FatalConditionHandler6engageEv
FN:8023,_ZN5Catch21FatalConditionHandler9disengageEv
FN:8034,_ZN5Catch26FatalConditionHandlerGuardC2EPNS_21FatalConditionHandlerE
FN:8038,_ZN5Catch26FatalConditionHandlerGuardD2Ev
FN:8183,_ZN5Catch12_GLOBAL__N_1lsERSoRKNS_20ITransientExpressionE
FN:8189,_ZN5Catch14LazyExpressionC2Eb
FN:8193,_ZN5Catch14LazyExpressionC2ERKS0_
FN:8195,_ZNK5Catch14LazyExpressioncvbEv
FN:8199,_ZN5CatchlsERSoRKNS_14LazyExpressionE
FN:8215,_ZN5Catch16AssertionHandlerC2ERKNS_9StringRefERKNS_14SourceLineInfoES1_NS_17ResultDisposition5FlagsE
FN:8224,_ZN5Catch16AssertionHandler10handleExprERKNS_20ITransientExpressionE
FN:8227,_ZN5Catch16AssertionHandler13handleMessageENS_9ResultWas6OfTypeERKNS_9StringRefE
FN:8231,_ZNK5Catch16AssertionHandler11allowThrowsEv
FN:8235,_ZN5Catch16AssertionHandler8completeEv
FN:8243,_ZZN5Catch16AssertionHandler8completeEvENKUlvE_clEv
FN:8253,_ZN5Catch16AssertionHandler12setCompletedEv
FN:8257,_ZN5Catch16AssertionHandler33handleUnexpectedInflightExceptionEv
FN:8261,_ZN5Catch16AssertionHandler31handleExceptionThrownAsExpectedEv
FN:8264,_ZN5Catch16AssertionHandler34handleExceptionNotThrownAsExpectedEv
FN:8268,_ZN5Catch16AssertionHandler34handleUnexpectedExceptionNotThrownEv
FN:8272,_ZN5Catch16AssertionHandler25handleThrowingCallSkippedEv
FN:8278,_ZN5Catch24handleExceptionMatchExprERNS_16AssertionHandlerERKNSt7__cxx1112basic_stringIcSt11char_traitsIcESaIcEEERKNS_9StringRefE
FN:8287,_ZN5Catch19AssertionResultDataC2ENS_9ResultWas6OfTypeERKNS_14LazyExpressionE
FN:8291,_ZNK5Catch19AssertionResultData21reconstructExpressionB5cxx11Ev
FN:8303,_ZN5Catch15AssertionResultC2ERKNS_13AssertionInfoERKNS_19AssertionResultDataE
FN:8309,_ZNK5Catch15AssertionResult9succeededEv
FN:8314,_ZNK5Catch15AssertionResult4isOkEv
FN:8318,_ZNK5Catch15AssertionResult13getResultTypeEv
FN:8322,_ZNK5Catch15AssertionResult13hasExpressionEv
FN:8326,_ZNK5Catch15AssertionResult10hasMessageEv
FN:8330,_ZNK5Catch15AssertionResult13getExpressionB5cxx11Ev
FN:8343,_ZNK5Catch15AssertionResult20getExpressionInMacroB5cxx11Ev
FN:8357,_ZNK5Catch15AssertionResult21hasExpandedExpressionEv
FN:8361,_ZNK5Catch15AssertionResult21getExpandedExpressionB5cxx11Ev
FN:8368,_ZNK5Catch15AssertionResult10getMessageB5cxx11Ev
FN:8371,_ZNK5Catch15AssertionResult13getSourceInfoEv
FN:8375,_ZNK5Catch15AssertionResult16getTestMacroNameEv
FN:8390,_ZN5Catch24handleExceptionMatchExprERNS_16AssertionHandlerERKNS_8Matchers4Impl11MatcherBaseINSt7__cxx1112basic_stringIcSt11char_traitsIcESaIcEEEEERKNS_9StringRefE
FN:8471,_ZN5Catch5clara8TextFlow12isWhitespaceEc
FN:8475,_ZN5Catch5clara8TextFlow17isBreakableBeforeEc
FN:8479,_ZN5Catch5clara8TextFlow16isBreakableAfterEc
FN:8504,_ZN5Catch5clara8TextFlow6Column8iteratorC2ERKS2_m
FN:8508,_ZNK5Catch5clara8TextFlow6Column8iterator4lineB5cxx11Ev
FN:8510,_ZNK5Catch5clara8TextFlow6Column8iterator10isBoundaryEm
FN:8520,_ZN5Catch5clara8TextFlow6Column8iterator10calcLengthEv
FN:8550,_ZNK5Catch5clara8TextFlow6Column8iterator6indentEv
FN:8555,_ZNK5Catch5clara8TextFlow6Column8iterator18addIndentAndSuffixERKNSt7__cxx1112basic_stringIcSt11char_traitsIcESaIcEEE
FN:8566,_ZN5Catch5clara8TextFlow6Column8iteratorC2ERKS2_
FN:8574,_ZNK5Catch5clara8TextFlow6Column8iteratordeB5cxx11Ev
FN:8580,_ZN5Catch5clara8TextFlow6Column8iteratorppEv
FN:8602,_ZNK5Catch5clara8TextFlow6Column8iteratoreqERKS3_
FN:8608,_ZNK5Catch5clara8TextFlow6Column8iteratorneERKS3_
FN:8614,_ZN5Catch5clara8TextFlow6ColumnC2ERKNSt7__cxx1112basic_stringIcSt11char_traitsIcESaIcEEE
FN:8616,_ZN5Catch5clara8TextFlow6Column5widthEm
FN:8621,_ZN5Catch5clara8TextFlow6Column6indentEm
FN:8625,_ZN5Catch5clara8TextFlow6Column13initialIndentEm
FN:8630,_ZNK5Catch5clara8TextFlow6Column5widthEv
FN:8631,_ZNK5Catch5clara8TextFlow6Column5beginEv
FN:8632,_ZNK5Catch5clara8TextFlow6Column3endEv
FN:8634,_ZN5Catch5clara8TextFlowlsERSoRKNS1_6ColumnE
FN:8658,_ZN5Catch5clara8TextFlow6SpacerC2Em
FN:8676,_ZN5Catch5clara8TextFlow7Columns8iteratorC2ERKS2_NS3_6EndTagE
FN:8692,_ZN5Catch5clara8TextFlow7Columns8iteratorC2ERKS2_
FN:8704,_ZNK5Catch5clara8TextFlow7Columns8iteratorneERKS3_
FN:8707,_ZNK5Catch5clara8TextFlow7Columns8iteratordeB5cxx11Ev
FN:8725,_ZN5Catch5clara8TextFlow7Columns8iteratorppEv
FN:8740,_ZNK5Catch5clara8TextFlow7Columns5beginEv
FN:8741,_ZNK5Catch5clara8TextFlow7Columns3endEv
FN:8743,_ZN5Catch5clara8TextFlow7ColumnspLERKNS1_6ColumnE
FN:8747,_ZN5Catch5clara8TextFlow7ColumnsplERKNS1_6ColumnE
FN:8753,_ZN5Catch5clara8TextFlowlsERSoRKNS1_7ColumnsE
FN:8773,_ZN5Catch5clara8TextFlow6ColumnplERKS2_
FN:8825,_ZN5Catch5clara6detail4ArgsC2EiPKPKc
FN:8834,_ZNK5Catch5clara6detail4Args7exeNameB5cxx11Ev
FN:8849,_ZN5Catch5clara6detail11isOptPrefixEc
FN:8864,_ZN5Catch5clara6detail11TokenStream10loadBufferEv
FN:8896,_ZN5Catch5clara6detail11TokenStreamC2ERKNS1_4ArgsE
FN:8898,_ZN5Catch5clara6detail11TokenStreamC2EN9__gnu_cxx17__normal_iteratorIPKNSt7__cxx1112basic_stringIcSt11char_traitsIcESaIcEEESt6vectorISA_SaISA_EEEESG_
FN:8902,_ZNK5Catch5clara6detail11TokenStreamcvbEv
FN:8908,_ZNK5Catch5clara6detail11TokenStreamdeEv
FN:8913,_ZNK5Catch5clara6detail11TokenStreamptEv
FN:8918,_ZN5Catch5clara6detail11TokenStreamppEv
FN:8937,_ZN5Catch5clara6detail10ResultBaseC2ENS2_4TypeE
FN:8938,_ZN5Catch5clara6detail10ResultBaseD2Ev
FN:8938,_ZN5Catch5clara6detail10ResultBaseD0Ev
FN:8948,_ZNK5Catch5clara6detail15ResultValueBaseINS1_15ParseResultTypeEE5valueEv
FN:8948,_ZNK5Catch5clara6detail15ResultValueBaseINS1_10ParseStateEE5valueEv
FN:8954,_ZN5Catch5clara6detail15ResultValueBaseINS1_10ParseStateEEC2ENS1_10ResultBase4TypeE
FN:8954,_ZN5Catch5clara6detail15ResultValueBaseINS1_15ParseResultTypeEEC2ENS1_10ResultBase4TypeE
FN:8956,_ZN5Catch5clara6detail15ResultValueBaseINS1_10ParseStateEEC2ERKS4_
FN:8956,_ZN5Catch5clara6detail15ResultValueBaseINS1_15ParseResultTypeEEC2ERKS4_
FN:8961,_ZN5Catch5clara6detail15ResultValueBaseINS1_10ParseStateEEC2ENS1_10ResultBase4TypeERKS3_
FN:8961,_ZN5Catch5clara6detail15ResultValueBaseINS1_15ParseResultTypeEEC2ENS1_10ResultBase4TypeERKS3_
FN:8965,_ZN5Catch5clara6detail15ResultValueBaseINS1_10ParseStateEEaSERKS4_
FN:8974,_ZN5Catch5clara6detail15ResultValueBaseINS1_10ParseStateEED0Ev
FN:8974,_ZN5Catch5clara6detail15ResultValueBaseINS1_15ParseResultTypeEED2Ev
FN:8974,_ZN5Catch5clara6detail15ResultValueBaseINS1_10ParseStateEED2Ev
FN:8974,_ZN5Catch5clara6detail15ResultValueBaseINS1_15ParseResultTypeEED0Ev
FN:8994,_ZN5Catch5clara6detail11BasicResultINS1_10ParseStateEEC2IvEERKNS2_IT_EE
FN:8994,_ZN5Catch5clara6detail11BasicResultINS1_10ParseStateEEC2INS1_15ParseResultTypeEEERKNS2_IT_EE
FN:9002,_ZN5Catch5clara6detail11BasicResultINS1_10ParseStateEE2okIS3_EES4_RKT_
FN:9002,_ZN5Catch5clara6detail11BasicResultINS1_15ParseResultTypeEE2okIS3_EES4_RKT_
FN:9003,_ZN5Catch5clara6detail11BasicResultIvE2okEv
FN:9004,_ZN5Catch5clara6detail11BasicResultIvE10logicErrorERKNSt7__cxx1112basic_stringIcSt11char_traitsIcESaIcEEE
FN:9005,_ZN5Catch5clara6detail11BasicResultINS1_15ParseResultTypeEE12runtimeErrorERKNSt7__cxx1112basic_stringIcSt11char_traitsIcESaIcEEE
FN:9005,_ZN5Catch5clara6detail11BasicResultINS1_10ParseStateEE12runtimeErrorERKNSt7__cxx1112basic_stringIcSt11char_traitsIcESaIcEEE
FN:9007,_ZNK5Catch5clara6detail11BasicResultIvEcvbEv
FN:9007,_ZNK5Catch5clara6detail11BasicResultINS1_10ParseStateEEcvbEv
FN:9007,_ZNK5Catch5clara6detail11BasicResultINS1_15ParseResultTypeEEcvbEv
FN:9008,_ZNK5Catch5clara6detail11BasicResultIvE4typeEv
FN:9008,_ZNK5Catch5clara6detail11BasicResultINS1_15ParseResultTypeEE4typeEv
FN:9008,_ZNK5Catch5clara6detail11BasicResultINS1_10ParseStateEE4typeEv
FN:9009,_ZNK5Catch5clara6detail11BasicResultINS1_10ParseStateEE12errorMessageB5cxx11Ev
FN:9009,_ZNK5Catch5clara6detail11BasicResultINS1_15ParseResultTypeEE12errorMessageB5cxx11Ev
FN:9009,_ZNK5Catch5clara6detail11BasicResultIvE12errorMessageB5cxx11Ev
FN:9012,_ZNK5Catch5clara6detail11BasicResultIvE9enforceOkEv
FN:9012,_ZNK5Catch5clara6detail11BasicResultINS1_15ParseResultTypeEE9enforceOkEv
FN:9012,_ZNK5Catch5clara6detail11BasicResultINS1_10ParseStateEE9enforceOkEv
FN:9024,_ZN5Catch5clara6detail11BasicResultIvEC2ENS1_10ResultBase4TypeERKNSt7__cxx1112basic_stringIcSt11char_traitsIcESaIcEEE
FN:9024,_ZN5Catch5clara6detail11BasicResultINS1_15ParseResultTypeEEC2ENS1_10ResultBase4TypeERKNSt7__cxx1112basic_stringIcSt11char_traitsIcESaIcEEE
FN:9024,_ZN5Catch5clara6detail11BasicResultINS1_10ParseStateEEC2ENS1_10ResultBase4TypeERKNSt7__cxx1112basic_stringIcSt11char_traitsIcESaIcEEE
FN:9042,_ZN5Catch5clara6detail10ParseStateC2ENS1_15ParseResultTypeERKNS1_11TokenStreamE
FN:9047,_ZNK5Catch5clara6detail10ParseState4typeEv
FN:9048,_ZNK5Catch5clara6detail10ParseState15remainingTokensEv
FN:9065,_ZN5Catch5clara6detail11convertIntoIiEENS1_11BasicResultINS1_15ParseResultTypeEEERKNSt7__cxx1112basic_stringIcSt11char_traitsIcESaIcEEERT_
FN:9065,_ZN5Catch5clara6detail11convertIntoIlEENS1_11BasicResultINS1_15ParseResultTypeEEERKNSt7__cxx1112basic_stringIcSt11char_traitsIcESaIcEEERT_
FN:9065,_ZN5Catch5clara6detail11convertIntoIjEENS1_11BasicResultINS1_15ParseResultTypeEEERKNSt7__cxx1112basic_stringIcSt11char_traitsIcESaIcEEERT_
FN:9065,_ZN5Catch5clara6detail11convertIntoIdEENS1_11BasicResultINS1_15ParseResultTypeEEERKNSt7__cxx1112basic_stringIcSt11char_traitsIcESaIcEEERT_
FN:9074,_ZN5Catch5clara6detail11convertIntoERKNSt7__cxx1112basic_stringIcSt11char_traitsIcESaIcEEERS7_
FN:9078,_ZN5Catch5clara6detail11convertIntoERKNSt7__cxx1112basic_stringIcSt11char_traitsIcESaIcEEERb
FN:9080,_ZZN5Catch5clara6detail11convertIntoERKNSt7__cxx1112basic_stringIcSt11char_traitsIcESaIcEEERbENKUlhE_clEh
FN:9109,_ZN5Catch5clara6detail8BoundRefD2Ev
FN:9109,_ZN5Catch5clara6detail8BoundRefD0Ev
FN:9110,_ZNK5Catch5clara6detail8BoundRef11isContainerEv
FN:9111,_ZNK5Catch5clara6detail8BoundRef6isFlagEv
FN:9118,_ZNK5Catch5clara6detail16BoundFlagRefBase6isFlagEv
FN:9125,_ZN5Catch5clara6detail13BoundValueRefIjEC2ERj
FN:9125,_ZN5Catch5clara6detail13BoundValueRefIlEC2ERl
FN:9125,_ZN5Catch5clara6detail13BoundValueRefIdEC2ERd
FN:9125,_ZN5Catch5clara6detail13BoundValueRefINSt7__cxx1112basic_stringIcSt11char_traitsIcESaIcEEEEC2ERS8_
FN:9127,_ZN5Catch5clara6detail13BoundValueRefIlE8setValueERKNSt7__cxx1112basic_stringIcSt11char_traitsIcESaIcEEE
FN:9127,_ZN5Catch5clara6detail13BoundValueRefIdE8setValueERKNSt7__cxx1112basic_stringIcSt11char_traitsIcESaIcEEE
FN:9127,_ZN5Catch5clara6detail13BoundValueRefINSt7__cxx1112basic_stringIcSt11char_traitsIcESaIcEEEE8setValueERKS8_
FN:9127,_ZN5Catch5clara6detail13BoundValueRefIjE8setValueERKNSt7__cxx1112basic_stringIcSt11char_traitsIcESaIcEEE
FN:9136,_ZN5Catch5clara6detail13BoundValueRefISt6vectorINSt7__cxx1112basic_stringIcSt11char_traitsIcESaIcEEESaIS9_EEEC2ERSB_
FN:9138,_ZNK5Catch5clara6detail13BoundValueRefISt6vectorINSt7__cxx1112basic_stringIcSt11char_traitsIcESaIcEEESaIS9_EEE11isContainerEv
FN:9140,_ZN5Catch5clara6detail13BoundValueRefISt6vectorINSt7__cxx1112basic_stringIcSt11char_traitsIcESaIcEEESaIS9_EEE8setValueERKS9_
FN:9152,_ZN5Catch5clara6detail12BoundFlagRefC2ERb
FN:9154,_ZN5Catch5clara6detail12BoundFlagRef7setFlagEb
FN:9165,_ZN5Catch5clara6detail13LambdaInvokerINS1_11BasicResultINS1_15ParseResultTypeEEEE6invokeIZNS_21makeCommandLineParserERNS_10ConfigDataEEUlRKNSt7__cxx1112basic_stringIcSt11char_traitsIcESaIcEEEE4_SF_EES5_RKT_RKT0_
FN:9165,_ZN5Catch5clara6detail13LambdaInvokerINS1_11BasicResultINS1_15ParseResultTypeEEEE6invokeIZNS_21makeCommandLineParserERNS_10ConfigDataEEUlRKNSt7__cxx1112basic_stringIcSt11char_traitsIcESaIcEEEE5_SF_EES5_RKT_RKT0_
FN:9165,_ZN5Catch5clara6detail13LambdaInvokerINS1_11BasicResultINS1_15ParseResultTypeEEEE6invokeIZNS_21makeCommandLineParserERNS_10ConfigDataEEUlRKNSt7__cxx1112basic_stringIcSt11char_traitsIcESaIcEEEE2_SF_EES5_RKT_RKT0_
FN:9165,_ZN5Catch5clara6detail13LambdaInvokerINS1_11BasicResultINS1_15ParseResultTypeEEEE6invokeIZNS_21makeCommandLineParserERNS_10ConfigDataEEUlRKNSt7__cxx1112basic_stringIcSt11char_traitsIcESaIcEEEE3_SF_EES5_RKT_RKT0_
FN:9165,_ZN5Catch5clara6detail13LambdaInvokerINS1_11BasicResultINS1_15ParseResultTypeEEEE6invokeIZNS_21makeCommandLineParserERNS_10ConfigDataEEUlRKNSt7__cxx1112basic_stringIcSt11char_traitsIcESaIcEEEE1_SF_EES5_RKT_RKT0_
FN:9165,_ZN5Catch5clara6detail13LambdaInvokerINS1_11BasicResultINS1_15ParseResultTypeEEEE6invokeIZNS_21makeCommandLineParserERNS_10ConfigDataEEUlRKNSt7__cxx1112basic_stringIcSt11char_traitsIcESaIcEEEE_SF_EES5_RKT_RKT0_
FN:9165,_ZN5Catch5clara6detail13LambdaInvokerINS1_11BasicResultINS1_15ParseResultTypeEEEE6invokeIZNS_21makeCommandLineParserERNS_10ConfigDataEEUlRKNSt7__cxx1112basic_stringIcSt11char_traitsIcESaIcEEEE6_SF_EES5_RKT_RKT0_
FN:9165,_ZN5Catch5clara6detail13LambdaInvokerINS1_11BasicResultINS1_15ParseResultTypeEEEE6invokeIZNS_21makeCommandLineParserERNS_10ConfigDataEEUlRKNSt7__cxx1112basic_stringIcSt11char_traitsIcESaIcEEEE0_SF_EES5_RKT_RKT0_
FN:9165,_ZN5Catch5clara6detail13LambdaInvokerINS1_11BasicResultINS1_15ParseResultTypeEEEE6invokeIZNS1_4HelpC4ERbEUlbE_bEES5_RKT_RKT0_
FN:9173,_ZN5Catch5clara6detail13LambdaInvokerIvE6invokeIZNS_21makeCommandLineParserERNS_10ConfigDataEEUliE8_iEENS1_11BasicResultINS1_15ParseResultTypeEEERKT_RKT0_
FN:9173,_ZN5Catch5clara6detail13LambdaInvokerIvE6invokeIZNS_21makeCommandLineParserERNS_10ConfigDataEEUlbE9_bEENS1_11BasicResultINS1_15ParseResultTypeEEERKT_RKT0_
FN:9173,_ZN5Catch5clara6detail13LambdaInvokerIvE6invokeIZNS_21makeCommandLineParserERNS_10ConfigDataEEUlbE7_bEENS1_11BasicResultINS1_15ParseResultTypeEEERKT_RKT0_
FN:9180,_ZN5Catch5clara6detail12invokeLambdaINSt7__cxx1112basic_stringIcSt11char_traitsIcESaIcEEEZNS_21makeCommandLineParserERNS_10ConfigDataEEUlRKS8_E2_EENS1_11BasicResultINS1_15ParseResultTypeEEERKT0_SC_
FN:9180,_ZN5Catch5clara6detail12invokeLambdaINSt7__cxx1112basic_stringIcSt11char_traitsIcESaIcEEEZNS_21makeCommandLineParserERNS_10ConfigDataEEUlRKS8_E3_EENS1_11BasicResultINS1_15ParseResultTypeEEERKT0_SC_
FN:9180,_ZN5Catch5clara6detail12invokeLambdaIiZNS_21makeCommandLineParserERNS_10ConfigDataEEUliE8_EENS1_11BasicResultINS1_15ParseResultTypeEEERKT0_RKNSt7__cxx1112basic_stringIcSt11char_traitsIcESaIcEEE
FN:9180,_ZN5Catch5clara6detail12invokeLambdaINSt7__cxx1112basic_stringIcSt11char_traitsIcESaIcEEEZNS_21makeCommandLineParserERNS_10ConfigDataEEUlRKS8_E0_EENS1_11BasicResultINS1_15ParseResultTypeEEERKT0_SC_
FN:9180,_ZN5Catch5clara6detail12invokeLambdaINSt7__cxx1112basic_stringIcSt11char_traitsIcESaIcEEEZNS_21makeCommandLineParserERNS_10ConfigDataEEUlRKS8_E1_EENS1_11BasicResultINS1_15ParseResultTypeEEERKT0_SC_
FN:9180,_ZN5Catch5clara6detail12invokeLambdaIbZNS_21makeCommandLineParserERNS_10ConfigDataEEUlbE9_EENS1_11BasicResultINS1_15ParseResultTypeEEERKT0_RKNSt7__cxx1112basic_stringIcSt11char_traitsIcESaIcEEE
FN:9180,_ZN5Catch5clara6detail12invokeLambdaINSt7__cxx1112basic_stringIcSt11char_traitsIcESaIcEEEZNS_21makeCommandLineParserERNS_10ConfigDataEEUlRKS8_E_EENS1_11BasicResultINS1_15ParseResultTypeEEERKT0_SC_
FN:9180,_ZN5Catch5clara6detail12invokeLambdaINSt7__cxx1112basic_stringIcSt11char_traitsIcESaIcEEEZNS_21makeCommandLineParserERNS_10ConfigDataEEUlRKS8_E5_EENS1_11BasicResultINS1_15ParseResultTypeEEERKT0_SC_
FN:9180,_ZN5Catch5clara6detail12invokeLambdaINSt7__cxx1112basic_stringIcSt11char_traitsIcESaIcEEEZNS_21makeCommandLineParserERNS_10ConfigDataEEUlRKS8_E4_EENS1_11BasicResultINS1_15ParseResultTypeEEERKT0_SC_
FN:9180,_ZN5Catch5clara6detail12invokeLambdaINSt7__cxx1112basic_stringIcSt11char_traitsIcESaIcEEEZNS_21makeCommandLineParserERNS_10ConfigDataEEUlRKS8_E6_EENS1_11BasicResultINS1_15ParseResultTypeEEERKT0_SC_
FN:9193,_ZN5Catch5clara6detail11BoundLambdaIZNS_21makeCommandLineParserERNS_10ConfigDataEEUlRKNSt7__cxx1112basic_stringIcSt11char_traitsIcESaIcEEEE0_EC2ERKSD_
FN:9193,_ZN5Catch5clara6detail11BoundLambdaIZNS_21makeCommandLineParserERNS_10ConfigDataEEUlRKNSt7__cxx1112basic_stringIcSt11char_traitsIcESaIcEEEE_EC2ERKSD_
FN:9193,_ZN5Catch5clara6detail11BoundLambdaIZNS_21makeCommandLineParserERNS_10ConfigDataEEUlbE9_EC2ERKS5_
FN:9193,_ZN5Catch5clara6detail11BoundLambdaIZNS_21makeCommandLineParserERNS_10ConfigDataEEUlRKNSt7__cxx1112basic_stringIcSt11char_traitsIcESaIcEEEE4_EC2ERKSD_
FN:9193,_ZN5Catch5clara6detail11BoundLambdaIZNS_21makeCommandLineParserERNS_10ConfigDataEEUlRKNSt7__cxx1112basic_stringIcSt11char_traitsIcESaIcEEEE6_EC2ERKSD_
FN:9193,_ZN5Catch5clara6detail11BoundLambdaIZNS_21makeCommandLineParserERNS_10ConfigDataEEUlRKNSt7__cxx1112basic_stringIcSt11char_traitsIcESaIcEEEE5_EC2ERKSD_
FN:9193,_ZN5Catch5clara6detail11BoundLambdaIZNS_21makeCommandLineParserERNS_10ConfigDataEEUlRKNSt7__cxx1112basic_stringIcSt11char_traitsIcESaIcEEEE3_EC2ERKSD_
FN:9193,_ZN5Catch5clara6detail11BoundLambdaIZNS_21makeCommandLineParserERNS_10ConfigDataEEUliE8_EC2ERKS5_
FN:9193,_ZN5Catch5clara6detail11BoundLambdaIZNS_21makeCommandLineParserERNS_10ConfigDataEEUlRKNSt7__cxx1112basic_stringIcSt11char_traitsIcESaIcEEEE1_EC2ERKSD_
FN:9193,_ZN5Catch5clara6detail11BoundLambdaIZNS_21makeCommandLineParserERNS_10ConfigDataEEUlRKNSt7__cxx1112basic_stringIcSt11char_traitsIcESaIcEEEE2_EC2ERKSD_
FN:9195,_ZN5Catch5clara6detail11BoundLambdaIZNS_21makeCommandLineParserERNS_10ConfigDataEEUlRKNSt7__cxx1112basic_stringIcSt11char_traitsIcESaIcEEEE3_E8setValueESC_
FN:9195,_ZN5Catch5clara6detail11BoundLambdaIZNS_21makeCommandLineParserERNS_10ConfigDataEEUliE8_E8setValueERKNSt7__cxx1112basic_stringIcSt11char_traitsIcESaIcEEE
FN:9195,_ZN5Catch5clara6detail11BoundLambdaIZNS_21makeCommandLineParserERNS_10ConfigDataEEUlRKNSt7__cxx1112basic_stringIcSt11char_traitsIcESaIcEEEE1_E8setValueESC_
FN:9195,_ZN5Catch5clara6detail11BoundLambdaIZNS_21makeCommandLineParserERNS_10ConfigDataEEUlbE9_E8setValueERKNSt7__cxx1112basic_stringIcSt11char_traitsIcESaIcEEE
FN:9195,_ZN5Catch5clara6detail11BoundLambdaIZNS_21makeCommandLineParserERNS_10ConfigDataEEUlRKNSt7__cxx1112basic_stringIcSt11char_traitsIcESaIcEEEE6_E8setValueESC_
FN:9195,_ZN5Catch5clara6detail11BoundLambdaIZNS_21makeCommandLineParserERNS_10ConfigDataEEUlRKNSt7__cxx1112basic_stringIcSt11char_traitsIcESaIcEEEE0_E8setValueESC_
FN:9195,_ZN5Catch5clara6detail11BoundLambdaIZNS_21makeCommandLineParserERNS_10ConfigDataEEUlRKNSt7__cxx1112basic_stringIcSt11char_traitsIcESaIcEEEE5_E8setValueESC_
FN:9195,_ZN5Catch5clara6detail11BoundLambdaIZNS_21makeCommandLineParserERNS_10ConfigDataEEUlRKNSt7__cxx1112basic_stringIcSt11char_traitsIcESaIcEEEE4_E8setValueESC_
FN:9195,_ZN5Catch5clara6detail11BoundLambdaIZNS_21makeCommandLineParserERNS_10ConfigDataEEUlRKNSt7__cxx1112basic_stringIcSt11char_traitsIcESaIcEEEE2_E8setValueESC_
FN:9195,_ZN5Catch5clara6detail11BoundLambdaIZNS_21makeCommandLineParserERNS_10ConfigDataEEUlRKNSt7__cxx1112basic_stringIcSt11char_traitsIcESaIcEEEE_E8setValueESC_
FN:9207,_ZN5Catch5clara6detail15BoundFlagLambdaIZNS_21makeCommandLineParserERNS_10ConfigDataEEUlbE7_EC2ERKS5_
FN:9207,_ZN5Catch5clara6detail15BoundFlagLambdaIZNS1_4HelpC4ERbEUlbE_EC2ERKS5_
FN:9209,_ZN5Catch5clara6detail15BoundFlagLambdaIZNS1_4HelpC4ERbEUlbE_E7setFlagEb
FN:9209,_ZN5Catch5clara6detail15BoundFlagLambdaIZNS_21makeCommandLineParserERNS_10ConfigDataEEUlbE7_E7setFlagEb
FN:9220,_ZN5Catch5clara6detail10ParserBaseD0Ev
FN:9220,_ZN5Catch5clara6detail10ParserBaseD2Ev
FN:9221,_ZNK5Catch5clara6detail10ParserBase8validateEv
FN:9223,_ZNK5Catch5clara6detail10ParserBase11cardinalityEv
FN:9225,_ZNK5Catch5clara6detail10ParserBase5parseERKNS1_4ArgsE
FN:9249,_ZN5Catch5clara6detail13ParserRefImplINS1_3OptEEC2ERKSt10shared_ptrINS1_8BoundRefEE
FN:9253,_ZN5Catch5clara6detail13ParserRefImplINS1_3OptEEC2ISt6vectorINSt7__cxx1112basic_stringIcSt11char_traitsIcESaIcEEESaISC_EEEERT_RKSC_
FN:9253,_ZN5Catch5clara6detail13ParserRefImplINS1_3ArgEEC2ISt6vectorINSt7__cxx1112basic_stringIcSt11char_traitsIcESaIcEEESaISC_EEEERT_RKSC_
FN:9253,_ZN5Catch5clara6detail13ParserRefImplINS1_3OptEEC2IdEERT_RKNSt7__cxx1112basic_stringIcSt11char_traitsIcESaIcEEE
FN:9253,_ZN5Catch5clara6detail13ParserRefImplINS1_3OptEEC2IjEERT_RKNSt7__cxx1112basic_stringIcSt11char_traitsIcESaIcEEE
FN:9253,_ZN5Catch5clara6detail13ParserRefImplINS1_3OptEEC2IlEERT_RKNSt7__cxx1112basic_stringIcSt11char_traitsIcESaIcEEE
FN:9253,_ZN5Catch5clara6detail13ParserRefImplINS1_3OptEEC2INSt7__cxx1112basic_stringIcSt11char_traitsIcESaIcEEEEERT_RKSB_
FN:9259,_ZN5Catch5clara6detail13ParserRefImplINS1_3OptEEC2IZNS_21makeCommandLineParserERNS_10ConfigDataEEUlRKNSt7__cxx1112basic_stringIcSt11char_traitsIcESaIcEEEE_EERKT_SF_
FN:9259,_ZN5Catch5clara6detail13ParserRefImplINS1_3OptEEC2IZNS_21makeCommandLineParserERNS_10ConfigDataEEUlRKNSt7__cxx1112basic_stringIcSt11char_traitsIcESaIcEEEE4_EERKT_SF_
FN:9259,_ZN5Catch5clara6detail13ParserRefImplINS1_3OptEEC2IZNS_21makeCommandLineParserERNS_10ConfigDataEEUlbE9_EERKT_RKNSt7__cxx1112basic_stringIcSt11char_traitsIcESaIcEEE
FN:9259,_ZN5Catch5clara6detail13ParserRefImplINS1_3OptEEC2IZNS_21makeCommandLineParserERNS_10ConfigDataEEUliE8_EERKT_RKNSt7__cxx1112basic_stringIcSt11char_traitsIcESaIcEEE
FN:9259,_ZN5Catch5clara6detail13ParserRefImplINS1_3OptEEC2IZNS_21makeCommandLineParserERNS_10ConfigDataEEUlRKNSt7__cxx1112basic_stringIcSt11char_traitsIcESaIcEEEE5_EERKT_SF_
FN:9259,_ZN5Catch5clara6detail13ParserRefImplINS1_3OptEEC2IZNS_21makeCommandLineParserERNS_10ConfigDataEEUlRKNSt7__cxx1112basic_stringIcSt11char_traitsIcESaIcEEEE2_EERKT_SF_
FN:9259,_ZN5Catch5clara6detail13ParserRefImplINS1_3OptEEC2IZNS_21makeCommandLineParserERNS_10ConfigDataEEUlRKNSt7__cxx1112basic_stringIcSt11char_traitsIcESaIcEEEE3_EERKT_SF_
FN:9259,_ZN5Catch5clara6detail13ParserRefImplINS1_3OptEEC2IZNS_21makeCommandLineParserERNS_10ConfigDataEEUlRKNSt7__cxx1112basic_stringIcSt11char_traitsIcESaIcEEEE0_EERKT_SF_
FN:9259,_ZN5Catch5clara6detail13ParserRefImplINS1_3OptEEC2IZNS_21makeCommandLineParserERNS_10ConfigDataEEUlRKNSt7__cxx1112basic_stringIcSt11char_traitsIcESaIcEEEE6_EERKT_SF_
FN:9259,_ZN5Catch5clara6detail13ParserRefImplINS1_3OptEEC2IZNS_21makeCommandLineParserERNS_10ConfigDataEEUlRKNSt7__cxx1112basic_stringIcSt11char_traitsIcESaIcEEEE1_EERKT_SF_
FN:9264,_ZN5Catch5clara6detail13ParserRefImplINS1_3OptEEclERKNSt7__cxx1112basic_stringIcSt11char_traitsIcESaIcEEE
FN:9264,_ZN5Catch5clara6detail13ParserRefImplINS1_3ArgEEclERKNSt7__cxx1112basic_stringIcSt11char_traitsIcESaIcEEE
FN:9269,_ZN5Catch5clara6detail13ParserRefImplINS1_3OptEE8optionalEv
FN:9279,_ZNK5Catch5clara6detail13ParserRefImplINS1_3ArgEE10isOptionalEv
FN:9283,_ZNK5Catch5clara6detail13ParserRefImplINS1_3ArgEE11cardinalityEv
FN:9283,_ZNK5Catch5clara6detail13ParserRefImplINS1_3OptEE11cardinalityEv
FN:9290,_ZNK5Catch5clara6detail13ParserRefImplINS1_3ArgEE4hintB5cxx11Ev
FN:9303,_ZN5Catch5clara6detail7ExeNameC2Ev
FN:9305,_ZN5Catch5clara6detail7ExeNameC2ERNSt7__cxx1112basic_stringIcSt11char_traitsIcESaIcEEE
FN:9315,_ZNK5Catch5clara6detail7ExeName5parseERKNSt7__cxx1112basic_stringIcSt11char_traitsIcESaIcEEERKNS1_11TokenStreamE
FN:9319,_ZNK5Catch5clara6detail7ExeName4nameB5cxx11Ev
FN:9320,_ZN5Catch5clara6detail7ExeName3setERKNSt7__cxx1112basic_stringIcSt11char_traitsIcESaIcEEE
FN:9339,_ZNK5Catch5clara6detail3Arg5parseERKNSt7__cxx1112basic_stringIcSt11char_traitsIcESaIcEEERKNS1_11TokenStreamE
FN:9360,_ZN5Catch5clara6detail12normaliseOptERKNSt7__cxx1112basic_stringIcSt11char_traitsIcESaIcEEE
FN:9375,_ZN5Catch5clara6detail3OptC2IZNS1_4HelpC4ERbEUlbE_EERKT_
FN:9375,_ZN5Catch5clara6detail3OptC2IZNS_21makeCommandLineParserERNS_10ConfigDataEEUlbE7_EERKT_
FN:9377,_ZN5Catch5clara6detail3OptC2ERb
FN:9380,_ZN5Catch5clara6detail3OptC2IZNS_21makeCommandLineParserERNS_10ConfigDataEEUlRKNSt7__cxx1112basic_stringIcSt11char_traitsIcESaIcEEEE_EERKT_SD_
FN:9380,_ZN5Catch5clara6detail3OptC2IZNS_21makeCommandLineParserERNS_10ConfigDataEEUlRKNSt7__cxx1112basic_stringIcSt11char_traitsIcESaIcEEEE2_EERKT_SD_
FN:9380,_ZN5Catch5clara6detail3OptC2IZNS_21makeCommandLineParserERNS_10ConfigDataEEUlRKNSt7__cxx1112basic_stringIcSt11char_traitsIcESaIcEEEE1_EERKT_SD_
FN:9380,_ZN5Catch5clara6detail3OptC2IZNS_21makeCommandLineParserERNS_10ConfigDataEEUlbE9_EERKT_RKNSt7__cxx1112basic_stringIcSt11char_traitsIcESaIcEEE
FN:9380,_ZN5Catch5clara6detail3OptC2IZNS_21makeCommandLineParserERNS_10ConfigDataEEUlRKNSt7__cxx1112basic_stringIcSt11char_traitsIcESaIcEEEE3_EERKT_SD_
FN:9380,_ZN5Catch5clara6detail3OptC2IZNS_21makeCommandLineParserERNS_10ConfigDataEEUlRKNSt7__cxx1112basic_stringIcSt11char_traitsIcESaIcEEEE6_EERKT_SD_
FN:9380,_ZN5Catch5clara6detail3OptC2IZNS_21makeCommandLineParserERNS_10ConfigDataEEUliE8_EERKT_RKNSt7__cxx1112basic_stringIcSt11char_traitsIcESaIcEEE
FN:9380,_ZN5Catch5clara6detail3OptC2IZNS_21makeCommandLineParserERNS_10ConfigDataEEUlRKNSt7__cxx1112basic_stringIcSt11char_traitsIcESaIcEEEE5_EERKT_SD_
FN:9380,_ZN5Catch5clara6detail3OptC2IZNS_21makeCommandLineParserERNS_10ConfigDataEEUlRKNSt7__cxx1112basic_stringIcSt11char_traitsIcESaIcEEEE4_EERKT_SD_
FN:9380,_ZN5Catch5clara6detail3OptC2IZNS_21makeCommandLineParserERNS_10ConfigDataEEUlRKNSt7__cxx1112basic_stringIcSt11char_traitsIcESaIcEEEE0_EERKT_SD_
FN:9383,_ZN5Catch5clara6detail3OptC2IlEERT_RKNSt7__cxx1112basic_stringIcSt11char_traitsIcESaIcEEE
FN:9383,_ZN5Catch5clara6detail3OptC2ISt6vectorINSt7__cxx1112basic_stringIcSt11char_traitsIcESaIcEEESaISA_EEEERT_RKSA_
FN:9383,_ZN5Catch5clara6detail3OptC2INSt7__cxx1112basic_stringIcSt11char_traitsIcESaIcEEEEERT_RKS9_
FN:9383,_ZN5Catch5clara6detail3OptC2IjEERT_RKNSt7__cxx1112basic_stringIcSt11char_traitsIcESaIcEEE
FN:9383,_ZN5Catch5clara6detail3OptC2IdEERT_RKNSt7__cxx1112basic_stringIcSt11char_traitsIcESaIcEEE
FN:9385,_ZN5Catch5clara6detail3OptixERKNSt7__cxx1112basic_stringIcSt11char_traitsIcESaIcEEE
FN:9390,_ZNK5Catch5clara6detail3Opt14getHelpColumnsEv
FN:9405,_ZNK5Catch5clara6detail3Opt7isMatchERKNSt7__cxx1112basic_stringIcSt11char_traitsIcESaIcEEE
FN:9416,_ZNK5Catch5clara6detail3Opt5parseERKNSt7__cxx1112basic_stringIcSt11char_traitsIcESaIcEEERKNS1_11TokenStreamE
FN:9452,_ZNK5Catch5clara6detail3Opt8validateEv
FN:9471,_ZN5Catch5clara6detail4HelpC2ERb
FN:9472,_ZZN5Catch5clara6detail4HelpC4ERbENKUlbE_clEb
FN:9490,_ZN5Catch5clara6detail6ParseroRERKNS1_7ExeNameE
FN:9495,_ZN5Catch5clara6detail6ParseroRERKNS1_3ArgE
FN:9500,_ZN5Catch5clara6detail6ParseroRERKNS1_3OptE
FN:9512,_ZNK5Catch5clara6detail6ParserorINS1_3ArgEEES2_RKT_
FN:9512,_ZNK5Catch5clara6detail6ParserorINS1_7ExeNameEEES2_RKT_
FN:9512,_ZNK5Catch5clara6detail6ParserorINS1_4HelpEEES2_RKT_
FN:9512,_ZNK5Catch5clara6detail6ParserorINS1_3OptEEES2_RKT_
FN:9522,_ZNK5Catch5clara6detail6Parser14getHelpColumnsEv
FN:9531,_ZNK5Catch5clara6detail6Parser13writeToStreamERSo
FN:9572,_ZN5Catch5clara6detaillsERSoRKNS1_6ParserE
FN:9577,_ZNK5Catch5clara6detail6Parser8validateEv
FN:9593,_ZNK5Catch5clara6detail6Parser5parseERKNSt7__cxx1112basic_stringIcSt11char_traitsIcESaIcEEERKNS1_11TokenStreamE
FN:9642,_ZNK5Catch5clara6detail20ComposableParserImplINS1_7ExeNameEEorINS1_4HelpEEENS1_6ParserERKT_
FN:9697,_ZN5Catch21makeCommandLineParserERNS_10ConfigDataE
FN:9701,_ZZN5Catch21makeCommandLineParserERNS_10ConfigDataEENKUlRKNSt7__cxx1112basic_stringIcSt11char_traitsIcESaIcEEEE_clES9_
FN:9702,_ZZZN5Catch21makeCommandLineParserERNS_10ConfigDataEENKUlRKNSt7__cxx1112basic_stringIcSt11char_traitsIcESaIcEEEE_clES9_ENKUlvE_clEv
FN:9717,_ZZN5Catch21makeCommandLineParserERNS_10ConfigDataEENKUlRKNSt7__cxx1112basic_stringIcSt11char_traitsIcESaIcEEEE0_clES9_
FN:9738,_ZZN5Catch21makeCommandLineParserERNS_10ConfigDataEENKUlRKNSt7__cxx1112basic_stringIcSt11char_traitsIcESaIcEEEE1_clES9_
FN:9749,_ZZN5Catch21makeCommandLineParserERNS_10ConfigDataEENKUlRKNSt7__cxx1112basic_stringIcSt11char_traitsIcESaIcEEEE2_clES9_
FN:9755,_ZZN5Catch21makeCommandLineParserERNS_10ConfigDataEENKUlRKNSt7__cxx1112basic_stringIcSt11char_traitsIcESaIcEEEE3_clES9_
FN:9768,_ZZN5Catch21makeCommandLineParserERNS_10ConfigDataEENKUlRKNSt7__cxx1112basic_stringIcSt11char_traitsIcESaIcEEEE4_clES9_
FN:9782,_ZZN5Catch21makeCommandLineParserERNS_10ConfigDataEENKUlRKNSt7__cxx1112basic_stringIcSt11char_traitsIcESaIcEEEE5_clES9_
FN:9794,_ZZN5Catch21makeCommandLineParserERNS_10ConfigDataEENKUlRKNSt7__cxx1112basic_stringIcSt11char_traitsIcESaIcEEEE6_clES9_
FN:9837,_ZZN5Catch21makeCommandLineParserERNS_10ConfigDataEENKUlbE7_clEb
FN:9840,_ZZN5Catch21makeCommandLineParserERNS_10ConfigDataEENKUliE8_clEi
FN:9846,_ZZN5Catch21makeCommandLineParserERNS_10ConfigDataEENKUlbE9_clEb
FN:9915,_ZNK5Catch14SourceLineInfoeqERKS0_
FN:9918,_ZNK5Catch14SourceLineInfoltERKS0_
FN:9924,_ZN5CatchlsERSoRKNS_14SourceLineInfoE
FN:9933,_ZNK5Catch13StreamEndStoppsB5cxx11Ev
FN:9937,_ZN5Catch11NonCopyableC2Ev
FN:9938,_ZN5Catch11NonCopyableD0Ev
FN:9938,_ZN5Catch11NonCopyableD2Ev
FN:9946,_ZN5Catch6ConfigC2ERKNS_10ConfigDataE
FN:9971,_ZNK5Catch6Config11getFilenameB5cxx11Ev
FN:9975,_ZNK5Catch6Config9listTestsEv
FN:9976,_ZNK5Catch6Config17listTestNamesOnlyEv
FN:9977,_ZNK5Catch6Config8listTagsEv
FN:9978,_ZNK5Catch6Config13listReportersEv
FN:9980,_ZNK5Catch6Config14getProcessNameB5cxx11Ev
FN:9981,_ZNK5Catch6Config15getReporterNameB5cxx11Ev
FN:9983,_ZNK5Catch6Config14getTestsOrTagsB5cxx11Ev
FN:9984,_ZNK5Catch6Config16getSectionsToRunB5cxx11Ev
FN:9986,_ZNK5Catch6Config8testSpecEv
FN:9987,_ZNK5Catch6Config14hasTestFiltersEv
FN:9989,_ZNK5Catch6Config8showHelpEv
FN:9992,_ZNK5Catch6Config11allowThrowsEv
FN:9993,_ZNK5Catch6Config6streamEv
FN:9994,_ZNK5Catch6Config4nameB5cxx11Ev
FN:9995,_ZNK5Catch6Config24includeSuccessfulResultsEv
FN:9996,_ZNK5Catch6Config26warnAboutMissingAssertionsEv
FN:9997,_ZNK5Catch6Config16warnAboutNoTestsEv
FN:9998,_ZNK5Catch6Config13showDurationsEv
FN:9999,_ZNK5Catch6Config11minDurationEv
FN:10000,_ZNK5Catch6Config8runOrderEv
FN:10001,_ZNK5Catch6Config7rngSeedEv
FN:10002,_ZNK5Catch6Config9useColourEv
FN:10003,_ZNK5Catch6Config16shouldDebugBreakEv
FN:10004,_ZNK5Catch6Config10abortAfterEv
FN:10005,_ZNK5Catch6Config14showInvisiblesEv
FN:10006,_ZNK5Catch6Config9verbosityEv
FN:10008,_ZNK5Catch6Config19benchmarkNoAnalysisEv
FN:10009,_ZNK5Catch6Config16benchmarkSamplesEv
FN:10010,_ZNK5Catch6Config27benchmarkConfidenceIntervalEv
FN:10011,_ZNK5Catch6Config18benchmarkResamplesEv
FN:10012,_ZNK5Catch6Config19benchmarkWarmupTimeEv
FN:10014,_ZN5Catch6Config10openStreamEv
FN:10078,_ZN5Catch12_GLOBAL__N_111IColourImplD2Ev
FN:10083,_ZN5Catch12_GLOBAL__N_112NoColourImpl3useENS_6Colour4CodeE
FN:10085,_ZN5Catch12_GLOBAL__N_112NoColourImpl8instanceEv
FN:10180,_ZN5Catch12_GLOBAL__N_115PosixColourImpl3useENS_6Colour4CodeE
FN:10201,_ZN5Catch12_GLOBAL__N_115PosixColourImpl8instanceEv
FN:10207,_ZN5Catch12_GLOBAL__N_115PosixColourImpl9setColourEPKc
FN:10213,_ZN5Catch12_GLOBAL__N_119useColourOnPlatformEv
FN:10225,_ZN5Catch12_GLOBAL__N_122platformColourInstanceEv
FN:10255,_ZN5Catch6ColourC2ENS0_4CodeE
FN:10256,_ZN5Catch6ColourC2EOS0_
FN:10260,_ZN5Catch6ColouraSEOS0_
FN:10266,_ZN5Catch6ColourD2Ev
FN:10268,_ZN5Catch6Colour3useENS0_4CodeE
FN:10279,_ZN5CatchlsERSoRKNS_6ColourE
FN:10297,_ZN5Catch7Context16getResultCaptureEv
FN:10300,_ZN5Catch7Context9getRunnerEv
FN:10304,_ZNK5Catch7Context9getConfigEv
FN:10311,_ZN5Catch7Context16setResultCaptureEPNS_14IResultCaptureE
FN:10314,_ZN5Catch7Context9setRunnerEPNS_7IRunnerE
FN:10317,_ZN5Catch7Context9setConfigERKSt10shared_ptrIKNS_7IConfigEE
FN:10331,_ZN5Catch15IMutableContext13createContextEv
FN:10336,_ZN5Catch14cleanUpContextEv
FN:10340,_ZN5Catch8IContextD2Ev
FN:10340,_ZN5Catch8IContextD0Ev
FN:10341,_ZN5Catch15IMutableContextD0Ev
FN:10341,_ZN5Catch15IMutableContextD2Ev
FN:10342,_ZN5Catch7ContextD0Ev
FN:10342,_ZN5Catch7ContextD2Ev
FN:10344,_ZN5Catch3rngEv
FN:10382,_ZN5Catch19writeToDebugConsoleERKNSt7__cxx1112basic_stringIcSt11char_traitsIcESaIcEEE
FN:10463,_ZN5Catch16isDebuggerActiveEv
FN:10505,_ZN5Catch20ITransientExpressionD2Ev
FN:10505,_ZN5Catch20ITransientExpressionD0Ev
FN:10507,_ZN5Catch29formatReconstructedExpressionERSoRKNSt7__cxx1112basic_stringIcSt11char_traitsIcESaIcEEENS_9StringRefES8_
FN:10532,_ZN5Catch17throw_logic_errorERKNSt7__cxx1112basic_stringIcSt11char_traitsIcESaIcEEE
FN:10537,_ZN5Catch18throw_domain_errorERKNSt7__cxx1112basic_stringIcSt11char_traitsIcESaIcEEE
FN:10542,_ZN5Catch19throw_runtime_errorERKNSt7__cxx1112basic_stringIcSt11char_traitsIcESaIcEEE
FN:10580,_ZN5Catch26IMutableEnumValuesRegistryD2Ev
FN:10580,_ZN5Catch26IMutableEnumValuesRegistryD0Ev
FN:10587,_ZN5Catch6Detail12_GLOBAL__N_119extractInstanceNameENS_9StringRefE
FN:10597,_ZN5Catch6Detail10parseEnumsENS_9StringRefE
FN:10607,_ZN5Catch6Detail8EnumInfoD2Ev
FN:10609,_ZNK5Catch6Detail8EnumInfo6lookupEi
FN:10617,_ZN5Catch6Detail12makeEnumInfoENS_9StringRefES1_RKSt6vectorIiSaIiEE
FN:10631,_ZN5Catch6Detail18EnumValuesRegistry12registerEnumENS_9StringRefES2_RKSt6vectorIiSaIiEE
FN:10645,_ZN5Catch10ErrnoGuardC2Ev
FN:10646,_ZN5Catch10ErrnoGuardD2Ev
FN:10678,_ZN5Catch27ExceptionTranslatorRegistryD2Ev
FN:10678,_ZN5Catch27ExceptionTranslatorRegistryD0Ev
FN:10681,_ZN5Catch27ExceptionTranslatorRegistry18registerTranslatorEPKNS_20IExceptionTranslatorE
FN:10686,_ZNK5Catch27ExceptionTranslatorRegistry24translateActiveExceptionB5cxx11Ev
FN:10728,_ZNK5Catch27ExceptionTranslatorRegistry14tryTranslatorsB5cxx11Ev
FN:10775,_ZN12_GLOBAL__N_111reportFatalEPKc
FN:10888,_ZN5CatchL29restorePreviousSignalHandlersEv
FN:10900,_ZN5CatchL12handleSignalEi
FN:10916,_ZN5Catch21FatalConditionHandlerC2Ev
FN:10924,_ZN5Catch21FatalConditionHandlerD2Ev
FN:10931,_ZN5Catch21FatalConditionHandler15engage_platformEv
FN:10950,_ZN5Catch21FatalConditionHandler18disengage_platformEv
FN:10965,_ZN5Catch17IGeneratorTrackerD2Ev
FN:10965,_ZN5Catch17IGeneratorTrackerD0Ev
FN:10967,_ZNK5Catch18GeneratorException4whatEv
FN:10973,_ZN5Catch10Generators20GeneratorUntypedBaseD2Ev
FN:10973,_ZN5Catch10Generators20GeneratorUntypedBaseD0Ev
FN:10975,_ZN5Catch10Generators23acquireGeneratorTrackerENS_9StringRefERKNS_14SourceLineInfoE
FN:10985,_ZN5Catch14IResultCaptureD0Ev
FN:10985,_ZN5Catch14IResultCaptureD2Ev
FN:10991,_ZN5Catch7IConfigD2Ev
FN:10991,_ZN5Catch7IConfigD0Ev
FN:10997,_ZN5Catch20IExceptionTranslatorD0Ev
FN:10997,_ZN5Catch20IExceptionTranslatorD2Ev
FN:10998,_ZN5Catch28IExceptionTranslatorRegistryD2Ev
FN:10998,_ZN5Catch28IExceptionTranslatorRegistryD0Ev
FN:11004,_ZN5Catch12IRegistryHubD0Ev
FN:11004,_ZN5Catch12IRegistryHubD2Ev
FN:11005,_ZN5Catch19IMutableRegistryHubD2Ev
FN:11005,_ZN5Catch19IMutableRegistryHubD0Ev
FN:11066,_ZN5Catch14ReporterConfigC2ERKSt10shared_ptrIKNS_7IConfigEE
FN:11069,_ZN5Catch14ReporterConfigC2ERKSt10shared_ptrIKNS_7IConfigEERSo
FN:11072,_ZNK5Catch14ReporterConfig6streamEv
FN:11073,_ZNK5Catch14ReporterConfig10fullConfigEv
FN:11075,_ZN5Catch11TestRunInfoC2ERKNSt7__cxx1112basic_stringIcSt11char_traitsIcESaIcEEE
FN:11077,_ZN5Catch9GroupInfoC2ERKNSt7__cxx1112basic_stringIcSt11char_traitsIcESaIcEEEmm
FN:11085,_ZN5Catch14AssertionStatsC2ERKNS_15AssertionResultERKSt6vectorINS_11MessageInfoESaIS5_EERKNS_6TotalsE
FN:11105,_ZN5Catch14AssertionStatsD2Ev
FN:11105,_ZN5Catch14AssertionStatsD0Ev
FN:11107,_ZN5Catch12SectionStatsC2ERKNS_11SectionInfoERKNS_6CountsEdb
FN:11117,_ZN5Catch12SectionStatsD2Ev
FN:11117,_ZN5Catch12SectionStatsD0Ev
FN:11119,_ZN5Catch13TestCaseStatsC2ERKNS_12TestCaseInfoERKNS_6TotalsERKNSt7__cxx1112basic_stringIcSt11char_traitsIcESaIcEEESE_b
FN:11131,_ZN5Catch13TestCaseStatsD2Ev
FN:11131,_ZN5Catch13TestCaseStatsD0Ev
FN:11133,_ZN5Catch14TestGroupStatsC2ERKNS_9GroupInfoERKNS_6TotalsEb
FN:11141,_ZN5Catch14TestGroupStatsC2ERKNS_9GroupInfoE
FN:11146,_ZN5Catch14TestGroupStatsD0Ev
FN:11146,_ZN5Catch14TestGroupStatsD2Ev
FN:11148,_ZN5Catch12TestRunStatsC2ERKNS_11TestRunInfoERKNS_6TotalsEb
FN:11156,_ZN5Catch12TestRunStatsD0Ev
FN:11156,_ZN5Catch12TestRunStatsD2Ev
FN:11158,_ZN5Catch18IStreamingReporter21fatalErrorEncounteredENS_9StringRefE
FN:11159,_ZNK5Catch18IStreamingReporter7isMultiEv
FN:11161,_ZN5Catch16IReporterFactoryD2Ev
FN:11161,_ZN5Catch16IReporterFactoryD0Ev
FN:11162,_ZN5Catch17IReporterRegistryD0Ev
FN:11162,_ZN5Catch17IReporterRegistryD2Ev
FN:11169,_ZN5Catch7IRunnerD2Ev
FN:11169,_ZN5Catch7IRunnerD0Ev
FN:11175,_ZN5Catch12ITestInvokerD2Ev
FN:11175,_ZN5Catch12ITestInvokerD0Ev
FN:11176,_ZN5Catch17ITestCaseRegistryD0Ev
FN:11176,_ZN5Catch17ITestCaseRegistryD2Ev
FN:11200,_ZN5Catch12LeakDetectorC2Ev
FN:11204,_ZN5Catch12LeakDetectorD2Ev
FN:11250,_ZN5Catch9listTestsERKNS_6ConfigE
FN:11284,_ZN5Catch18listTestsNamesOnlyERKNS_6ConfigE
FN:11301,_ZN5Catch7TagInfo3addERKNSt7__cxx1112basic_stringIcSt11char_traitsIcESaIcEEE
FN:11306,_ZNK5Catch7TagInfo3allB5cxx11Ev
FN:11322,_ZN5Catch8listTagsERKNS_6ConfigE
FN:11357,_ZN5Catch13listReportersEv
FN:11379,_ZN5Catch4listERKSt10shared_ptrINS_6ConfigEE
FN:11401,_ZNK5Catch8Matchers4Impl18MatcherUntypedBase8toStringB5cxx11Ev
FN:11407,_ZN5Catch8Matchers4Impl18MatcherUntypedBaseD0Ev
FN:11407,_ZN5Catch8Matchers4Impl18MatcherUntypedBaseD2Ev
FN:11423,_ZNK5Catch8Matchers9Exception23ExceptionMessageMatcher5matchERKSt9exception
FN:11427,_ZNK5Catch8Matchers9Exception23ExceptionMessageMatcher8describeB5cxx11Ev
FN:11432,_ZN5Catch8Matchers7MessageERKNSt7__cxx1112basic_stringIcSt11char_traitsIcESaIcEEE
FN:11481,_ZN5Catch12_GLOBAL__N_17convertEf
FN:11488,_ZN5Catch12_GLOBAL__N_17convertEd
FN:11496,_ZN5Catch12_GLOBAL__N_115almostEqualUlpsIfEEbT_S2_m
FN:11496,_ZN5Catch12_GLOBAL__N_115almostEqualUlpsIdEEbT_S2_m
FN:11518,_ZN5Catch12_GLOBAL__N_19nextafterEff
FN:11522,_ZN5Catch12_GLOBAL__N_19nextafterEdd
FN:11529,_ZN5Catch12_GLOBAL__N_14stepIdEET_S2_S2_m
FN:11529,_ZN5Catch12_GLOBAL__N_14stepIfEET_S2_S2_m
FN:11542,_ZN5Catch12_GLOBAL__N_116marginComparisonEddd
FN:11547,_ZN5Catch12_GLOBAL__N_15writeIfEEvRSoT_
FN:11547,_ZN5Catch12_GLOBAL__N_15writeIdEEvRSoT_
FN:11563,_ZN5Catch8Matchers8Floating16WithinAbsMatcherC2Edd
FN:11571,_ZNK5Catch8Matchers8Floating16WithinAbsMatcher5matchERKd
FN:11575,_ZNK5Catch8Matchers8Floating16WithinAbsMatcher8describeB5cxx11Ev
FN:11579,_ZN5Catch8Matchers8Floating17WithinUlpsMatcherC2EdmNS1_17FloatingPointKindE
FN:11592,_ZNK5Catch8Matchers8Floating17WithinUlpsMatcher5matchERKd
FN:11607,_ZNK5Catch8Matchers8Floating17WithinUlpsMatcher8describeB5cxx11Ev
FN:11635,_ZN5Catch8Matchers8Floating16WithinRelMatcherC2Edd
FN:11642,_ZNK5Catch8Matchers8Floating16WithinRelMatcher5matchERKd
FN:11648,_ZNK5Catch8Matchers8Floating16WithinRelMatcher8describeB5cxx11Ev
FN:11656,_ZN5Catch8Matchers9WithinULPEdm
FN:11660,_ZN5Catch8Matchers9WithinULPEfm
FN:11664,_ZN5Catch8Matchers9WithinAbsEdd
FN:11668,_ZN5Catch8Matchers9WithinRelEdd
FN:11672,_ZN5Catch8Matchers9WithinRelEd
FN:11676,_ZN5Catch8Matchers9WithinRelEff
FN:11680,_ZN5Catch8Matchers9WithinRelEf
FN:11689,_ZN5Catch8Matchers7Generic6Detail19finalizeDescriptionERKNSt7__cxx1112basic_stringIcSt11char_traitsIcESaIcEEE
FN:11706,_ZN5Catch8Matchers9StdString11CasedStringC2ERKNSt7__cxx1112basic_stringIcSt11char_traitsIcESaIcEEENS_13CaseSensitive6ChoiceE
FN:11710,_ZNK5Catch8Matchers9StdString11CasedString12adjustStringERKNSt7__cxx1112basic_stringIcSt11char_traitsIcESaIcEEE
FN:11715,_ZNK5Catch8Matchers9StdString11CasedString21caseSensitivitySuffixB5cxx11Ev
FN:11721,_ZN5Catch8Matchers9StdString17StringMatcherBaseC2ERKNSt7__cxx1112basic_stringIcSt11char_traitsIcESaIcEEERKNS1_11CasedStringE
FN:11726,_ZNK5Catch8Matchers9StdString17StringMatcherBase8describeB5cxx11Ev
FN:11738,_ZN5Catch8Matchers9StdString13EqualsMatcherC2ERKNS1_11CasedStringE
FN:11740,_ZNK5Catch8Matchers9StdString13EqualsMatcher5matchERKNSt7__cxx1112basic_stringIcSt11char_traitsIcESaIcEEE
FN:11744,_ZN5Catch8Matchers9StdString15ContainsMatcherC2ERKNS1_11CasedStringE
FN:11746,_ZNK5Catch8Matchers9StdString15ContainsMatcher5matchERKNSt7__cxx1112basic_stringIcSt11char_traitsIcESaIcEEE
FN:11750,_ZN5Catch8Matchers9StdString17StartsWithMatcherC2ERKNS1_11CasedStringE
FN:11752,_ZNK5Catch8Matchers9StdString17StartsWithMatcher5matchERKNSt7__cxx1112basic_stringIcSt11char_traitsIcESaIcEEE
FN:11756,_ZN5Catch8Matchers9StdString15EndsWithMatcherC2ERKNS1_11CasedStringE
FN:11758,_ZNK5Catch8Matchers9StdString15EndsWithMatcher5matchERKNSt7__cxx1112basic_stringIcSt11char_traitsIcESaIcEEE
FN:11762,_ZN5Catch8Matchers9StdString12RegexMatcherC2ENSt7__cxx1112basic_stringIcSt11char_traitsIcESaIcEEENS_13CaseSensitive6ChoiceE
FN:11764,_ZNK5Catch8Matchers9StdString12RegexMatcher5matchERKNSt7__cxx1112basic_stringIcSt11char_traitsIcESaIcEEE
FN:11773,_ZNK5Catch8Matchers9StdString12RegexMatcher8describeB5cxx11Ev
FN:11779,_ZN5Catch8Matchers6EqualsERKNSt7__cxx1112basic_stringIcSt11char_traitsIcESaIcEEENS_13CaseSensitive6ChoiceE
FN:11782,_ZN5Catch8Matchers8ContainsERKNSt7__cxx1112basic_stringIcSt11char_traitsIcESaIcEEENS_13CaseSensitive6ChoiceE
FN:11785,_ZN5Catch8Matchers8EndsWithERKNSt7__cxx1112basic_stringIcSt11char_traitsIcESaIcEEENS_13CaseSensitive6ChoiceE
FN:11788,_ZN5Catch8Matchers10StartsWithERKNSt7__cxx1112basic_stringIcSt11char_traitsIcESaIcEEENS_13CaseSensitive6ChoiceE
FN:11792,_ZN5Catch8Matchers7MatchesERKNSt7__cxx1112basic_stringIcSt11char_traitsIcESaIcEEENS_13CaseSensitive6ChoiceE
FN:11813,_ZN5Catch11MessageInfoC2ERKNS_9StringRefERKNS_14SourceLineInfoENS_9ResultWas6OfTypeE
FN:11822,_ZNK5Catch11MessageInfoeqERKS0_
FN:11826,_ZNK5Catch11MessageInfoltERKS0_
FN:11835,_ZN5Catch14MessageBuilderC2ERKNS_9StringRefERKNS_14SourceLineInfoENS_9ResultWas6OfTypeE
FN:11842,_ZN5Catch13ScopedMessageC2ERKNS_14MessageBuilderE
FN:11849,_ZN5Catch13ScopedMessageC2EOS0_
FN:11855,_ZN5Catch13ScopedMessageD2Ev
FN:11861,_ZN5Catch8CapturerC2ENS_9StringRefERKNS_14SourceLineInfoENS_9ResultWas6OfTypeES1_
FN:11862,_ZZN5Catch8CapturerC4ENS_9StringRefERKNS_14SourceLineInfoENS_9ResultWas6OfTypeES1_ENKUlmmE_clEmm
FN:11871,_ZZN5Catch8CapturerC4ENS_9StringRefERKNS_14SourceLineInfoENS_9ResultWas6OfTypeES1_ENKUlmcE0_clEmc
FN:11918,_ZN5Catch8CapturerD2Ev
FN:11926,_ZN5Catch8Capturer12captureValueEmRKNSt7__cxx1112basic_stringIcSt11char_traitsIcESaIcEEE
FN:12063,_ZN5Catch16RedirectedStreamC2ERSoS1_
FN:12071,_ZN5Catch16RedirectedStreamD2Ev
FN:12075,_ZN5Catch16RedirectedStdOutC2Ev
FN:12076,_ZNK5Catch16RedirectedStdOut3strB5cxx11Ev
FN:12078,_ZN5Catch16RedirectedStdErrC2Ev
FN:12082,_ZNK5Catch16RedirectedStdErr3strB5cxx11Ev
FN:12084,_ZN5Catch17RedirectedStreamsC2ERNSt7__cxx1112basic_stringIcSt11char_traitsIcESaIcEEES7_
FN:12089,_ZN5Catch17RedirectedStreamsD2Ev
FN:12187,_ZN5Catch5isnanEf
FN:12190,_ZN5Catch5isnanEd
FN:12216,_ZN5Catch12_GLOBAL__N_112rotate_rightEjj
FN:12228,_ZN5Catch11SimplePcg32C2Ej
FN:12232,_ZN5Catch11SimplePcg324seedEj
FN:12239,_ZN5Catch11SimplePcg327discardEm
FN:12247,_ZN5Catch11SimplePcg32clEv
FN:12258,_ZN5CatcheqERKNS_11SimplePcg32ES2_
FN:12262,_ZN5CatchneERKNS_11SimplePcg32ES2_
FN:12293,_ZN5Catch12TestRegistryD0Ev
FN:12293,_ZN5Catch12TestRegistryD2Ev
FN:12422,_ZN5Catch9SingletonINS_13StringStreamsES1_S1_E11getInternalEv
FN:12422,_ZN5Catch9SingletonINS_12_GLOBAL__N_111RegistryHubENS_12IRegistryHubENS_19IMutableRegistryHubEE11getInternalEv
FN:12432,_ZN5Catch9SingletonINS_12_GLOBAL__N_111RegistryHubENS_12IRegistryHubENS_19IMutableRegistryHubEE3getEv
FN:12435,_ZN5Catch9SingletonINS_12_GLOBAL__N_111RegistryHubENS_12IRegistryHubENS_19IMutableRegistryHubEE10getMutableEv
FN:12435,_ZN5Catch9SingletonINS_13StringStreamsES1_S1_E10getMutableEv
FN:12451,_ZN5Catch12_GLOBAL__N_111RegistryHubC2Ev
FN:12452,_ZNK5Catch12_GLOBAL__N_111RegistryHub19getReporterRegistryEv
FN:12455,_ZNK5Catch12_GLOBAL__N_111RegistryHub19getTestCaseRegistryEv
FN:12458,_ZNK5Catch12_GLOBAL__N_111RegistryHub30getExceptionTranslatorRegistryEv
FN:12461,_ZNK5Catch12_GLOBAL__N_111RegistryHub19getTagAliasRegistryEv
FN:12464,_ZNK5Catch12_GLOBAL__N_111RegistryHub27getStartupExceptionRegistryEv
FN:12469,_ZN5Catch12_GLOBAL__N_111RegistryHub16registerReporterERKNSt7__cxx1112basic_stringIcSt11char_traitsIcESaIcEEERKSt10shared_ptrINS_16IReporterFactoryEE
FN:12472,_ZN5Catch12_GLOBAL__N_111RegistryHub16registerListenerERKSt10shared_ptrINS_16IReporterFactoryEE
FN:12475,_ZN5Catch12_GLOBAL__N_111RegistryHub12registerTestERKNS_8TestCaseE
FN:12478,_ZN5Catch12_GLOBAL__N_111RegistryHub18registerTranslatorEPKNS_20IExceptionTranslatorE
FN:12481,_ZN5Catch12_GLOBAL__N_111RegistryHub16registerTagAliasERKNSt7__cxx1112basic_stringIcSt11char_traitsIcESaIcEEES9_RKNS_14SourceLineInfoE
FN:12484,_ZN5Catch12_GLOBAL__N_111RegistryHub24registerStartupExceptionEv
FN:12491,_ZN5Catch12_GLOBAL__N_111RegistryHub28getMutableEnumValuesRegistryEv
FN:12507,_ZN5Catch14getRegistryHubEv
FN:12510,_ZN5Catch21getMutableRegistryHubEv
FN:12513,_ZN5Catch7cleanUpEv
FN:12517,_ZN5Catch24translateActiveExceptionB5cxx11Ev
FN:12527,_ZN5Catch16ReporterRegistryD2Ev
FN:12527,_ZN5Catch16ReporterRegistryD0Ev
FN:12529,_ZNK5Catch16ReporterRegistry6createERKNSt7__cxx1112basic_stringIcSt11char_traitsIcESaIcEEERKSt10shared_ptrIKNS_7IConfigEE
FN:12536,_ZN5Catch16ReporterRegistry16registerReporterERKNSt7__cxx1112basic_stringIcSt11char_traitsIcESaIcEEERKSt10shared_ptrINS_16IReporterFactoryEE
FN:12539,_ZN5Catch16ReporterRegistry16registerListenerERKSt10shared_ptrINS_16IReporterFactoryEE
FN:12543,_ZNK5Catch16ReporterRegistry12getFactoriesB5cxx11Ev
FN:12546,_ZNK5Catch16ReporterRegistry12getListenersEv
FN:12556,_ZN5Catch4isOkENS_9ResultWas6OfTypeE
FN:12559,_ZN5Catch10isJustInfoEi
FN:12563,_ZN5CatchorENS_17ResultDisposition5FlagsES1_
FN:12567,_ZN5Catch23shouldContinueOnFailureEi
FN:12568,_ZN5Catch21shouldSuppressFailureEi
FN:12584,_ZN5Catch10Generators16GeneratorTrackerC2ERKNS_16TestCaseTracking15NameAndLocationERNS2_14TrackerContextEPNS2_8ITrackerE
FN:12589,_ZN5Catch10Generators16GeneratorTracker7acquireERNS_16TestCaseTracking14TrackerContextERKNS2_15NameAndLocationE
FN:12626,_ZNK5Catch10Generators16GeneratorTracker18isGeneratorTrackerEv
FN:12627,_ZNK5Catch10Generators16GeneratorTracker12hasGeneratorEv
FN:12630,_ZN5Catch10Generators16GeneratorTracker5closeEv
FN:12639,_ZZN5Catch10Generators16GeneratorTracker5closeEvENKUlvE_clEv
FN:12648,_ZZZN5Catch10Generators16GeneratorTracker5closeEvENKUlvE_clEvENKUlSt10shared_ptrINS_16TestCaseTracking8ITrackerEEE_clES6_
FN:12700,_ZNK5Catch10Generators16GeneratorTracker12getGeneratorEv
FN:12703,_ZN5Catch10Generators16GeneratorTracker12setGeneratorEOSt10unique_ptrINS0_20GeneratorUntypedBaseESt14default_deleteIS3_EE
FN:12707,_ZN5Catch10Generators16GeneratorTrackerD2Ev
FN:12707,_ZN5Catch10Generators16GeneratorTrackerD0Ev
FN:12710,_ZN5Catch10RunContextC2ERKSt10shared_ptrIKNS_7IConfigEEOSt10unique_ptrINS_18IStreamingReporterESt14default_deleteIS8_EE
FN:12724,_ZN5Catch10RunContextD0Ev
FN:12724,_ZN5Catch10RunContextD2Ev
FN:12728,_ZN5Catch10RunContext17testGroupStartingERKNSt7__cxx1112basic_stringIcSt11char_traitsIcESaIcEEEmm
FN:12732,_ZN5Catch10RunContext14testGroupEndedERKNSt7__cxx1112basic_stringIcSt11char_traitsIcESaIcEEERKNS_6TotalsEmm
FN:12736,_ZN5Catch10RunContext7runTestERKNS_8TestCaseE
FN:12776,_ZNK5Catch10RunContext6configEv
FN:12780,_ZNK5Catch10RunContext8reporterEv
FN:12784,_ZN5Catch10RunContext14assertionEndedERKNS_15AssertionResultE
FN:12810,_ZN5Catch10RunContext18resetAssertionInfoEv
FN:12815,_ZN5Catch10RunContext14sectionStartedERKNS_11SectionInfoERNS_6CountsE
FN:12829,_ZN5Catch10RunContext23acquireGeneratorTrackerENS_9StringRefERKNS_14SourceLineInfoE
FN:12837,_ZN5Catch10RunContext24testForMissingAssertionsERNS_6CountsE
FN:12849,_ZN5Catch10RunContext12sectionEndedERKNS_14SectionEndInfoE
FN:12863,_ZN5Catch10RunContext17sectionEndedEarlyERKNS_14SectionEndInfoE
FN:12888,_ZN5Catch10RunContext17pushScopedMessageERKNS_11MessageInfoE
FN:12892,_ZN5Catch10RunContext16popScopedMessageERKNS_11MessageInfoE
FN:12896,_ZN5Catch10RunContext22emplaceUnscopedMessageERKNS_14MessageBuilderE
FN:12900,_ZNK5Catch10RunContext18getCurrentTestNameB5cxx11Ev
FN:12906,_ZNK5Catch10RunContext13getLastResultEv
FN:12910,_ZN5Catch10RunContext22exceptionEarlyReportedEv
FN:12914,_ZN5Catch10RunContext25handleFatalErrorConditionENS_9StringRefE
FN:12952,_ZN5Catch10RunContext19lastAssertionPassedEv
FN:12956,_ZN5Catch10RunContext15assertionPassedEv
FN:12963,_ZNK5Catch10RunContext8abortingEv
FN:12967,_ZN5Catch10RunContext14runCurrentTestERNSt7__cxx1112basic_stringIcSt11char_traitsIcESaIcEEES7_
FN:13018,_ZN5Catch10RunContext20invokeActiveTestCaseEv
FN:13023,_ZN5Catch10RunContext24handleUnfinishedSectionsEv
FN:13034,_ZN5Catch10RunContext10handleExprERKNS_13AssertionInfoERKNS_20ITransientExpressionERNS_17AssertionReactionE
FN:13057,_ZN5Catch10RunContext10reportExprERKNS_13AssertionInfoENS_9ResultWas6OfTypeEPKNS_20ITransientExpressionEb
FN:13072,_ZN5Catch10RunContext13handleMessageERKNS_13AssertionInfoENS_9ResultWas6OfTypeERKNS_9StringRefERNS_17AssertionReactionE
FN:13089,_ZN5Catch10RunContext34handleUnexpectedExceptionNotThrownERKNS_13AssertionInfoERNS_17AssertionReactionE
FN:13096,_ZN5Catch10RunContext33handleUnexpectedInflightExceptionERKNS_13AssertionInfoERKNSt7__cxx1112basic_stringIcSt11char_traitsIcESaIcEEERNS_17AssertionReactionE
FN:13110,_ZN5Catch10RunContext16populateReactionERNS_17AssertionReactionE
FN:13115,_ZN5Catch10RunContext16handleIncompleteERKNS_13AssertionInfoE
FN:13125,_ZN5Catch10RunContext13handleNonExprERKNS_13AssertionInfoENS_9ResultWas6OfTypeERNS_17AssertionReactionE
FN:13140,_ZN5Catch16getResultCaptureEv
FN:13147,_ZN5Catch7seedRngERKNS_7IConfigE
FN:13154,_ZN5Catch7rngSeedEv
FN:13164,_ZN5Catch7SectionC2ERKNS_11SectionInfoE
FN:13171,_ZN5Catch7SectionD2Ev
FN:13171,_ZN5Catch7SectionD0Ev
FN:13182,_ZNK5Catch7SectioncvbEv
FN:13192,_ZN5Catch11SectionInfoC2ERKNS_14SourceLineInfoERKNSt7__cxx1112basic_stringIcSt11char_traitsIcESaIcEEE
FN:13226,_ZN5Catch7Session3runIcEEiiPKPKT_
FN:13294,_ZN5Catch12_GLOBAL__N_114createReporterERKNSt7__cxx1112basic_stringIcSt11char_traitsIcESaIcEEERKSt10shared_ptrIKNS_7IConfigEE
FN:13301,_ZN5Catch12_GLOBAL__N_112makeReporterERKSt10shared_ptrINS_6ConfigEE
FN:13323,_ZN5Catch12_GLOBAL__N_19TestGroupC2ERKSt10shared_ptrINS_6ConfigEE
FN:13341,_ZN5Catch12_GLOBAL__N_19TestGroup7executeEv
FN:13377,_ZN5Catch12_GLOBAL__N_120applyFilenamesAsTagsERKNS_7IConfigE
FN:13401,_ZN5Catch7SessionC2Ev
FN:13432,_ZN5Catch7SessionD2Ev
FN:13432,_ZN5Catch7SessionD0Ev
FN:13436,_ZNK5Catch7Session8showHelpEv
FN:13442,_ZN5Catch7Session11libIdentifyEv
FN:13450,_ZN5Catch7Session16applyCommandLineEiPKPKc
FN:13499,_ZN5Catch7Session13useConfigDataERKNS_10ConfigDataE
FN:13504,_ZN5Catch7Session3runEv
FN:13517,_ZNK5Catch7Session3cliEv
FN:13520,_ZN5Catch7Session3cliERKNS_5clara6detail6ParserE
FN:13523,_ZN5Catch7Session10configDataEv
FN:13526,_ZN5Catch7Session6configEv
FN:13532,_ZN5Catch7Session11runInternalEv
FN:13580,_ZN5Catch12_GLOBAL__N_1L13getSingletonsEv
FN:13588,_ZN5Catch10ISingletonD0Ev
FN:13588,_ZN5Catch10ISingletonD2Ev
FN:13590,_ZN5Catch12addSingletonEPNS_10ISingletonE
FN:13593,_ZN5Catch17cleanupSingletonsEv
FN:13607,_ZN5Catch24StartupExceptionRegistry3addERKNSt15__exception_ptr13exception_ptrE
FN:13616,_ZNK5Catch24StartupExceptionRegistry13getExceptionsEv
FN:13634,_ZN5Catch7IStreamD2Ev
FN:13634,_ZN5Catch7IStreamD0Ev
FN:13643,_ZN5Catch6Detail12_GLOBAL__N_113StreamBufImplINS1_17OutputDebugWriterELm256EEC2Ev
FN:13647,_ZN5Catch6Detail12_GLOBAL__N_113StreamBufImplINS1_17OutputDebugWriterELm256EED0Ev
FN:13647,_ZN5Catch6Detail12_GLOBAL__N_113StreamBufImplINS1_17OutputDebugWriterELm256EED2Ev
FN:13652,_ZN5Catch6Detail12_GLOBAL__N_113StreamBufImplINS1_17OutputDebugWriterELm256EE8overflowEi
FN:13664,_ZN5Catch6Detail12_GLOBAL__N_113StreamBufImplINS1_17OutputDebugWriterELm256EE4syncEv
FN:13677,_ZN5Catch6Detail12_GLOBAL__N_117OutputDebugWriterclERKNSt7__cxx1112basic_stringIcSt11char_traitsIcESaIcEEE
FN:13687,_ZN5Catch6Detail12_GLOBAL__N_110FileStreamC2ENS_9StringRefE
FN:13691,_ZN5Catch6Detail12_GLOBAL__N_110FileStreamD0Ev
FN:13691,_ZN5Catch6Detail12_GLOBAL__N_110FileStreamD2Ev
FN:13693,_ZNK5Catch6Detail12_GLOBAL__N_110FileStream6streamEv
FN:13705,_ZN5Catch6Detail12_GLOBAL__N_110CoutStreamC2Ev
FN:13706,_ZN5Catch6Detail12_GLOBAL__N_110CoutStreamD0Ev
FN:13706,_ZN5Catch6Detail12_GLOBAL__N_110CoutStreamD2Ev
FN:13709,_ZNK5Catch6Detail12_GLOBAL__N_110CoutStream6streamEv
FN:13718,_ZN5Catch6Detail12_GLOBAL__N_114DebugOutStreamC2Ev
FN:13723,_ZN5Catch6Detail12_GLOBAL__N_114DebugOutStreamD2Ev
FN:13723,_ZN5Catch6Detail12_GLOBAL__N_114DebugOutStreamD0Ev
FN:13726,_ZNK5Catch6Detail12_GLOBAL__N_114DebugOutStream6streamEv
FN:13733,_ZN5Catch10makeStreamERKNS_9StringRefE
FN:13752,_ZN5Catch13StringStreams3addEv
FN:13764,_ZN5Catch13StringStreams7releaseEm
FN:13770,_ZN5Catch20ReusableStringStreamC2Ev
FN:13775,_ZN5Catch20ReusableStringStreamD0Ev
FN:13775,_ZN5Catch20ReusableStringStreamD2Ev
FN:13781,_ZNK5Catch20ReusableStringStream3strB5cxx11Ev
FN:13788,_ZN5Catch4coutEv
FN:13789,_ZN5Catch4cerrEv
FN:13790,_ZN5Catch4clogEv
FN:13805,_ZN5Catch12_GLOBAL__N_19toLowerChEc
FN:13810,_ZN5Catch10startsWithERKNSt7__cxx1112basic_stringIcSt11char_traitsIcESaIcEEES7_
FN:13813,_ZN5Catch10startsWithERKNSt7__cxx1112basic_stringIcSt11char_traitsIcESaIcEEEc
FN:13816,_ZN5Catch8endsWithERKNSt7__cxx1112basic_stringIcSt11char_traitsIcESaIcEEES7_
FN:13819,_ZN5Catch8endsWithERKNSt7__cxx1112basic_stringIcSt11char_traitsIcESaIcEEEc
FN:13822,_ZN5Catch8containsERKNSt7__cxx1112basic_stringIcSt11char_traitsIcESaIcEEES7_
FN:13825,_ZN5Catch14toLowerInPlaceERNSt7__cxx1112basic_stringIcSt11char_traitsIcESaIcEEE
FN:13828,_ZN5Catch7toLowerERKNSt7__cxx1112basic_stringIcSt11char_traitsIcESaIcEEE
FN:13833,_ZN5Catch4trimERKNSt7__cxx1112basic_stringIcSt11char_traitsIcESaIcEEE
FN:13841,_ZN5Catch4trimENS_9StringRefE
FN:13842,_ZZN5Catch4trimENS_9StringRefEENKUlcE_clEc
FN:13853,_ZN5Catch14replaceInPlaceERNSt7__cxx1112basic_stringIcSt11char_traitsIcESaIcEEERKS5_S8_
FN:13867,_ZN5Catch14splitStringRefENS_9StringRefEc
FN:13882,_ZN5Catch9pluraliseC2EmRKNSt7__cxx1112basic_stringIcSt11char_traitsIcESaIcEEE
FN:13887,_ZN5CatchlsERSoRKNS_9pluraliseE
FN:13904,_ZN5Catch9StringRefC2EPKc
FN:13908,_ZNK5Catch9StringRef5c_strEv
FN:13912,_ZNK5Catch9StringRef4dataEv
FN:13916,_ZNK5Catch9StringRef6substrEmm
FN:13923,_ZNK5Catch9StringRefeqERKS0_
FN:13928,_ZN5CatchlsERSoRKNS_9StringRefE
FN:13932,_ZN5CatchpLERNSt7__cxx1112basic_stringIcSt11char_traitsIcESaIcEEERKNS_9StringRefE
FN:13942,_ZN5Catch8TagAliasC2ERKNSt7__cxx1112basic_stringIcSt11char_traitsIcESaIcEEENS_14SourceLineInfoE
FN:13949,_ZN5Catch22RegistrarForTagAliasesC2EPKcS2_RKNS_14SourceLineInfoE
FN:13966,_ZN5Catch16TagAliasRegistryD0Ev
FN:13966,_ZN5Catch16TagAliasRegistryD2Ev
FN:13968,_ZNK5Catch16TagAliasRegistry4findERKNSt7__cxx1112basic_stringIcSt11char_traitsIcESaIcEEE
FN:13976,_ZNK5Catch16TagAliasRegistry13expandAliasesERKNSt7__cxx1112basic_stringIcSt11char_traitsIcESaIcEEE
FN:13989,_ZN5Catch16TagAliasRegistry3addERKNSt7__cxx1112basic_stringIcSt11char_traitsIcESaIcEEES8_RKNS_14SourceLineInfoE
FN:13999,_ZN5Catch17ITagAliasRegistryD0Ev
FN:13999,_ZN5Catch17ITagAliasRegistryD2Ev
FN:14001,_ZN5Catch17ITagAliasRegistry3getEv
FN:14017,_ZN5Catch12_GLOBAL__N_115parseSpecialTagERKNSt7__cxx1112basic_stringIcSt11char_traitsIcESaIcEEE
FN:14034,_ZN5Catch12_GLOBAL__N_113isReservedTagERKNSt7__cxx1112basic_stringIcSt11char_traitsIcESaIcEEE
FN:14037,_ZN5Catch12_GLOBAL__N_121enforceNotReservedTagERKNSt7__cxx1112basic_stringIcSt11char_traitsIcESaIcEEERKNS_14SourceLineInfoE
FN:14045,_ZN5Catch12makeTestCaseEPNS_12ITestInvokerERKNSt7__cxx1112basic_stringIcSt11char_traitsIcESaIcEEERKNS_11NameAndTagsERKNS_14SourceLineInfoE
FN:14094,_ZN5Catch7setTagsERNS_12TestCaseInfoESt6vectorINSt7__cxx1112basic_stringIcSt11char_traitsIcESaIcEEESaIS8_EE
FN:14107,_ZN5Catch12TestCaseInfoC2ERKNSt7__cxx1112basic_stringIcSt11char_traitsIcESaIcEEES8_S8_RKSt6vectorIS6_SaIS6_EERKNS_14SourceLineInfoE
FN:14121,_ZNK5Catch12TestCaseInfo8isHiddenEv
FN:14124,_ZNK5Catch12TestCaseInfo6throwsEv
FN:14127,_ZNK5Catch12TestCaseInfo8okToFailEv
FN:14130,_ZNK5Catch12TestCaseInfo14expectedToFailEv
FN:14134,_ZNK5Catch12TestCaseInfo12tagsAsStringB5cxx11Ev
FN:14151,_ZN5Catch8TestCaseC2EPNS_12ITestInvokerEONS_12TestCaseInfoE
FN:14153,_ZNK5Catch8TestCase8withNameERKNSt7__cxx1112basic_stringIcSt11char_traitsIcESaIcEEE
FN:14159,_ZNK5Catch8TestCase6invokeEv
FN:14163,_ZNK5Catch8TestCaseeqERKS0_
FN:14169,_ZNK5Catch8TestCaseltERKS0_
FN:14173,_ZNK5Catch8TestCase15getTestCaseInfoEv
FN:14191,_ZN5Catch12_GLOBAL__N_110TestHasherC2Em
FN:14194,_ZNK5Catch12_GLOBAL__N_110TestHasherclERKNS_8TestCaseE
FN:14214,_ZN5Catch9sortTestsERKNS_7IConfigERKSt6vectorINS_8TestCaseESaIS4_EE
FN:14239,_ZZN5Catch9sortTestsERKNS_7IConfigERKSt6vectorINS_8TestCaseESaIS4_EEENKUlRKSt4pairImPKS4_ESE_E_clESE_SE_
FN:14259,_ZN5Catch11isThrowSafeERKNS_8TestCaseERKNS_7IConfigE
FN:14263,_ZN5Catch9matchTestERKNS_8TestCaseERKNS_8TestSpecERKNS_7IConfigE
FN:14267,_ZN5Catch27enforceNoDuplicateTestCasesERKSt6vectorINS_8TestCaseESaIS1_EE
FN:14278,_ZN5Catch11filterTestsERKSt6vectorINS_8TestCaseESaIS1_EERKNS_8TestSpecERKNS_7IConfigE
FN:14289,_ZN5Catch21getAllTestCasesSortedERKNS_7IConfigE
FN:14293,_ZN5Catch12TestRegistry12registerTestERKNS_8TestCaseE
FN:14303,_ZNK5Catch12TestRegistry11getAllTestsEv
FN:14306,_ZNK5Catch12TestRegistry17getAllTestsSortedERKNS_7IConfigE
FN:14318,_ZN5Catch21TestInvokerAsFunctionC2EPFvvE
FN:14320,_ZNK5Catch21TestInvokerAsFunction6invokeEv
FN:14324,_ZN5Catch16extractClassNameB5cxx11ERKNS_9StringRefE
FN:14355,_ZN5Catch16TestCaseTracking15NameAndLocationC2ERKNSt7__cxx1112basic_stringIcSt11char_traitsIcESaIcEEERKNS_14SourceLineInfoE
FN:14360,_ZN5Catch16TestCaseTracking8ITrackerD0Ev
FN:14360,_ZN5Catch16TestCaseTracking8ITrackerD2Ev
FN:14362,_ZN5Catch16TestCaseTracking14TrackerContext8startRunEv
FN:14369,_ZN5Catch16TestCaseTracking14TrackerContext6endRunEv
FN:14375,_ZN5Catch16TestCaseTracking14TrackerContext10startCycleEv
FN:14379,_ZN5Catch16TestCaseTracking14TrackerContext13completeCycleEv
FN:14383,_ZNK5Catch16TestCaseTracking14TrackerContext14completedCycleEv
FN:14386,_ZN5Catch16TestCaseTracking14TrackerContext14currentTrackerEv
FN:14389,_ZN5Catch16TestCaseTracking14TrackerContext17setCurrentTrackerEPNS0_8ITrackerE
FN:14393,_ZN5Catch16TestCaseTracking11TrackerBaseC2ERKNS0_15NameAndLocationERNS0_14TrackerContextEPNS0_8ITrackerE
FN:14399,_ZNK5Catch16TestCaseTracking11TrackerBase10isCompleteEv
FN:14402,_ZNK5Catch16TestCaseTracking11TrackerBase23isSuccessfullyCompletedEv
FN:14405,_ZNK5Catch16TestCaseTracking11TrackerBase6isOpenEv
FN:14408,_ZNK5Catch16TestCaseTracking11TrackerBase11hasChildrenEv
FN:14412,_ZN5Catch16TestCaseTracking11TrackerBase8addChildERKSt10shared_ptrINS0_8ITrackerEE
FN:14416,_ZN5Catch16TestCaseTracking11TrackerBase9findChildERKNS0_15NameAndLocationE
FN:14418,_ZZN5Catch16TestCaseTracking11TrackerBase9findChildERKNS0_15NameAndLocationEENKUlRKSt10shared_ptrINS0_8ITrackerEEE_clES9_
FN:14427,_ZN5Catch16TestCaseTracking11TrackerBase6parentEv
FN:14432,_ZN5Catch16TestCaseTracking11TrackerBase9openChildEv
FN:14440,_ZNK5Catch16TestCaseTracking11TrackerBase16isSectionTrackerEv
FN:14441,_ZNK5Catch16TestCaseTracking11TrackerBase18isGeneratorTrackerEv
FN:14443,_ZN5Catch16TestCaseTracking11TrackerBase4openEv
FN:14450,_ZN5Catch16TestCaseTracking11TrackerBase5closeEv
FN:14464,_ZZN5Catch16TestCaseTracking11TrackerBase5closeEvENKUlRKSt10shared_ptrINS0_8ITrackerEEE_clES6_
FN:14479,_ZN5Catch16TestCaseTracking11TrackerBase4failEv
FN:14486,_ZN5Catch16TestCaseTracking11TrackerBase23markAsNeedingAnotherRunEv
FN:14490,_ZN5Catch16TestCaseTracking11TrackerBase12moveToParentEv
FN:14494,_ZN5Catch16TestCaseTracking11TrackerBase10moveToThisEv
FN:14498,_ZN5Catch16TestCaseTracking14SectionTrackerC2ERKNS0_15NameAndLocationERNS0_14TrackerContextEPNS0_8ITrackerE
FN:14511,_ZNK5Catch16TestCaseTracking14SectionTracker10isCompleteEv
FN:14522,_ZNK5Catch16TestCaseTracking14SectionTracker16isSectionTrackerEv
FN:14524,_ZN5Catch16TestCaseTracking14SectionTracker7acquireERNS0_14TrackerContextERKNS0_15NameAndLocationE
FN:14542,_ZN5Catch16TestCaseTracking14SectionTracker7tryOpenEv
FN:14547,_ZN5Catch16TestCaseTracking14SectionTracker17addInitialFiltersERKSt6vectorINSt7__cxx1112basic_stringIcSt11char_traitsIcESaIcEEESaIS8_EE
FN:14555,_ZN5Catch16TestCaseTracking14SectionTracker14addNextFiltersERKSt6vectorINSt7__cxx1112basic_stringIcSt11char_traitsIcESaIcEEESaIS8_EE
FN:14560,_ZNK5Catch16TestCaseTracking14SectionTracker10getFiltersB5cxx11Ev
FN:14564,_ZNK5Catch16TestCaseTracking14SectionTracker11trimmedNameB5cxx11Ev
FN:14584,_ZN5Catch15makeTestInvokerEPFvvE
FN:14588,_ZN5Catch11NameAndTagsC2ERKNS_9StringRefES3_
FN:14590,_ZN5Catch7AutoRegC2EPNS_12ITestInvokerERKNS_14SourceLineInfoERKNS_9StringRefERKNS_11NameAndTagsE
FN:14605,_ZN5Catch7AutoRegD2Ev
FN:14605,_ZN5Catch7AutoRegD0Ev
FN:14617,_ZN5Catch8TestSpec7PatternC2ERKNSt7__cxx1112basic_stringIcSt11char_traitsIcESaIcEEE
FN:14621,_ZN5Catch8TestSpec7PatternD2Ev
FN:14621,_ZN5Catch8TestSpec7PatternD0Ev
FN:14623,_ZNK5Catch8TestSpec7Pattern4nameB5cxx11Ev
FN:14627,_ZN5Catch8TestSpec11NamePatternC2ERKNSt7__cxx1112basic_stringIcSt11char_traitsIcESaIcEEES9_
FN:14632,_ZNK5Catch8TestSpec11NamePattern7matchesERKNS_12TestCaseInfoE
FN:14636,_ZN5Catch8TestSpec10TagPatternC2ERKNSt7__cxx1112basic_stringIcSt11char_traitsIcESaIcEEES9_
FN:14641,_ZNK5Catch8TestSpec10TagPattern7matchesERKNS_12TestCaseInfoE
FN:14647,_ZN5Catch8TestSpec15ExcludedPatternC2ERKSt10shared_ptrINS0_7PatternEE
FN:14652,_ZNK5Catch8TestSpec15ExcludedPattern7matchesERKNS_12TestCaseInfoE
FN:14656,_ZNK5Catch8TestSpec6Filter7matchesERKNS_12TestCaseInfoE
FN:14657,_ZZNK5Catch8TestSpec6Filter7matchesERKNS_12TestCaseInfoEENKUlRKSt10shared_ptrINS0_7PatternEEE_clES9_
FN:14660,_ZNK5Catch8TestSpec6Filter4nameB5cxx11Ev
FN:14667,_ZNK5Catch8TestSpec10hasFiltersEv
FN:14671,_ZNK5Catch8TestSpec7matchesERKNS_12TestCaseInfoE
FN:14672,_ZZNK5Catch8TestSpec7matchesERKNS_12TestCaseInfoEENKUlRKNS0_6FilterEE_clES6_
FN:14675,_ZNK5Catch8TestSpec15matchesByFilterERKSt6vectorINS_8TestCaseESaIS2_EERKNS_7IConfigE
FN:14678,_ZZNK5Catch8TestSpec15matchesByFilterERKSt6vectorINS_8TestCaseESaIS2_EERKNS_7IConfigEENKUlRKNS0_6FilterEE_clESC_
FN:14688,_ZNK5Catch8TestSpec14getInvalidArgsB5cxx11Ev
FN:14698,_ZN5Catch14TestSpecParserC2ERKNS_17ITagAliasRegistryE
FN:14700,_ZN5Catch14TestSpecParser5parseERKNSt7__cxx1112basic_stringIcSt11char_traitsIcESaIcEEE
FN:14718,_ZN5Catch14TestSpecParser8testSpecEv
FN:14722,_ZN5Catch14TestSpecParser9visitCharEc
FN:14760,_ZN5Catch14TestSpecParser15processNoneCharEc
FN:14778,_ZN5Catch14TestSpecParser15processNameCharEc
FN:14787,_ZN5Catch14TestSpecParser16processOtherCharEc
FN:14794,_ZN5Catch14TestSpecParser12startNewModeENS0_4ModeE
FN:14797,_ZN5Catch14TestSpecParser7endModeEv
FN:14812,_ZN5Catch14TestSpecParser6escapeEv
FN:14817,_ZNK5Catch14TestSpecParser13isControlCharEc
FN:14834,_ZN5Catch14TestSpecParser9addFilterEv
FN:14841,_ZN5Catch14TestSpecParser12saveLastModeEv
FN:14845,_ZN5Catch14TestSpecParser20revertBackToLastModeEv
FN:14849,_ZN5Catch14TestSpecParser8separateEv
FN:14864,_ZN5Catch14TestSpecParser17preprocessPatternB5cxx11Ev
FN:14880,_ZN5Catch14TestSpecParser14addNamePatternEv
FN:14894,_ZN5Catch14TestSpecParser13addTagPatternEv
FN:14921,_ZN5Catch13parseTestSpecERKNSt7__cxx1112basic_stringIcSt11char_traitsIcESaIcEEE
FN:14935,_ZN5Catch31getCurrentNanosecondsSinceEpochEv
FN:14940,_ZN5Catch12_GLOBAL__N_123estimateClockResolutionEv
FN:14970,_ZN5Catch27getEstimatedClockResolutionEv
FN:14975,_ZN5Catch5Timer5startEv
FN:14978,_ZNK5Catch5Timer21getElapsedNanosecondsEv
FN:14981,_ZNK5Catch5Timer22getElapsedMicrosecondsEv
FN:14984,_ZNK5Catch5Timer22getElapsedMillisecondsEv
FN:14987,_ZNK5Catch5Timer17getElapsedSecondsEv
FN:15021,_ZN5Catch6Detail12_GLOBAL__N_110Endianness5whichEv
FN:15031,_ZN5Catch6Detail17rawMemoryToStringB5cxx11EPKvm
FN:15049,_ZN5Catch10fpToStringIfEENSt7__cxx1112basic_stringIcSt11char_traitsIcESaIcEEET_i
FN:15049,_ZN5Catch10fpToStringIdEENSt7__cxx1112basic_stringIcSt11char_traitsIcESaIcEEET_i
FN:15074,_ZN5Catch11StringMakerINSt7__cxx1112basic_stringIcSt11char_traitsIcESaIcEEEvE7convertERKS6_
FN:15098,_ZN5Catch11StringMakerISt17basic_string_viewIcSt11char_traitsIcEEvE7convertB5cxx11ES4_
FN:15103,_ZN5Catch11StringMakerIPKcvE7convertB5cxx11ES2_
FN:15110,_ZN5Catch11StringMakerIPcvE7convertB5cxx11ES1_
FN:15119,_ZN5Catch11StringMakerINSt7__cxx1112basic_stringIwSt11char_traitsIwESaIwEEEvE7convertERKS6_
FN:15129,_ZN5Catch11StringMakerISt17basic_string_viewIwSt11char_traitsIwEEvE7convertB5cxx11ES4_
FN:15134,_ZN5Catch11StringMakerIPKwvE7convertB5cxx11ES2_
FN:15141,_ZN5Catch11StringMakerIPwvE7convertB5cxx11ES1_
FN:15152,_ZN5Catch11StringMakerISt4bytevE7convertB5cxx11ES1_
FN:15157,_ZN5Catch11StringMakerIivE7convertB5cxx11Ei
FN:15160,_ZN5Catch11StringMakerIlvE7convertB5cxx11El
FN:15163,_ZN5Catch11StringMakerIxvE7convertB5cxx11Ex
FN:15172,_ZN5Catch11StringMakerIjvE7convertB5cxx11Ej
FN:15175,_ZN5Catch11StringMakerImvE7convertB5cxx11Em
FN:15178,_ZN5Catch11StringMakerIyvE7convertB5cxx11Ey
FN:15187,_ZN5Catch11StringMakerIbvE7convertB5cxx11Eb
FN:15191,_ZN5Catch11StringMakerIavE7convertB5cxx11Ea
FN:15208,_ZN5Catch11StringMakerIcvE7convertB5cxx11Ec
FN:15211,_ZN5Catch11StringMakerIhvE7convertB5cxx11Eh
FN:15215,_ZN5Catch11StringMakerIDnvE7convertB5cxx11EDn
FN:15221,_ZN5Catch11StringMakerIfvE7convertB5cxx11Ef
FN:15227,_ZN5Catch11StringMakerIdvE7convertB5cxx11Ed
FN:15231,_ZN5Catch12ratio_stringISt5ratioILl1ELl1000000000000000000EEE6symbolB5cxx11Ev
FN:15232,_ZN5Catch12ratio_stringISt5ratioILl1ELl1000000000000000EEE6symbolB5cxx11Ev
FN:15233,_ZN5Catch12ratio_stringISt5ratioILl1ELl1000000000000EEE6symbolB5cxx11Ev
FN:15234,_ZN5Catch12ratio_stringISt5ratioILl1ELl1000000000EEE6symbolB5cxx11Ev
FN:15235,_ZN5Catch12ratio_stringISt5ratioILl1ELl1000000EEE6symbolB5cxx11Ev
FN:15236,_ZN5Catch12ratio_stringISt5ratioILl1ELl1000EEE6symbolB5cxx11Ev
FN:15249,_ZNK5Catch6CountsmiERKS0_
FN:15257,_ZN5Catch6CountspLERKS0_
FN:15264,_ZNK5Catch6Counts5totalEv
FN:15267,_ZNK5Catch6Counts9allPassedEv
FN:15270,_ZNK5Catch6Counts5allOkEv
FN:15274,_ZNK5Catch6TotalsmiERKS0_
FN:15281,_ZN5Catch6TotalspLERKS0_
FN:15287,_ZNK5Catch6Totals5deltaERKS0_
FN:15340,_ZN5Catch19uncaught_exceptionsEv
FN:15357,_ZN5Catch7VersionC2EjjjPKcj
FN:15370,_ZN5CatchlsERSoRKNS_7VersionE
FN:15382,_ZN5Catch14libraryVersionEv
FN:15393,_ZN5Catch15WildcardPatternC2ERKNSt7__cxx1112basic_stringIcSt11char_traitsIcESaIcEEENS_13CaseSensitive6ChoiceE
FN:15408,_ZNK5Catch15WildcardPattern7matchesERKNSt7__cxx1112basic_stringIcSt11char_traitsIcESaIcEEE
FN:15423,_ZNK5Catch15WildcardPattern15normaliseStringERKNSt7__cxx1112basic_stringIcSt11char_traitsIcESaIcEEE
FN:15437,_ZN5Catch12_GLOBAL__N_113trailingBytesEh
FN:15450,_ZN5Catch12_GLOBAL__N_111headerValueEh
FN:15463,_ZN5Catch12_GLOBAL__N_113hexEscapeCharERSoh
FN:15471,_ZN5Catch12_GLOBAL__N_113shouldNewlineENS_13XmlFormattingE
FN:15475,_ZN5Catch12_GLOBAL__N_112shouldIndentENS_13XmlFormattingE
FN:15481,_ZN5CatchorENS_13XmlFormattingES0_
FN:15488,_ZN5CatchanENS_13XmlFormattingES0_
FN:15495,_ZN5Catch9XmlEncodeC2ERKNSt7__cxx1112basic_stringIcSt11char_traitsIcESaIcEEENS0_7ForWhatE
FN:15500,_ZNK5Catch9XmlEncode8encodeToERSo
FN:15594,_ZN5CatchlsERSoRKNS_9XmlEncodeE
FN:15599,_ZN5Catch9XmlWriter13ScopedElementC2EPS0_NS_13XmlFormattingE
FN:15604,_ZN5Catch9XmlWriter13ScopedElementC2EOS1_
FN:15611,_ZN5Catch9XmlWriter13ScopedElementaSEOS1_
FN:15622,_ZN5Catch9XmlWriter13ScopedElementD2Ev
FN:15628,_ZN5Catch9XmlWriter13ScopedElement9writeTextERKNSt7__cxx1112basic_stringIcSt11char_traitsIcESaIcEEENS_13XmlFormattingE
FN:15633,_ZN5Catch9XmlWriterC2ERSo
FN:15638,_ZN5Catch9XmlWriterD2Ev
FN:15645,_ZN5Catch9XmlWriter12startElementERKNSt7__cxx1112basic_stringIcSt11char_traitsIcESaIcEEENS_13XmlFormattingE
FN:15659,_ZN5Catch9XmlWriter13scopedElementERKNSt7__cxx1112basic_stringIcSt11char_traitsIcESaIcEEENS_13XmlFormattingE
FN:15665,_ZN5Catch9XmlWriter10endElementENS_13XmlFormattingE
FN:15684,_ZN5Catch9XmlWriter14writeAttributeERKNSt7__cxx1112basic_stringIcSt11char_traitsIcESaIcEEES8_
FN:15690,_ZN5Catch9XmlWriter14writeAttributeERKNSt7__cxx1112basic_stringIcSt11char_traitsIcESaIcEEEb
FN:15695,_ZN5Catch9XmlWriter9writeTextERKNSt7__cxx1112basic_stringIcSt11char_traitsIcESaIcEEENS_13XmlFormattingE
FN:15708,_ZN5Catch9XmlWriter12writeCommentERKNSt7__cxx1112basic_stringIcSt11char_traitsIcESaIcEEENS_13XmlFormattingE
FN:15718,_ZN5Catch9XmlWriter18writeStylesheetRefERKNSt7__cxx1112basic_stringIcSt11char_traitsIcESaIcEEE
FN:15722,_ZN5Catch9XmlWriter14writeBlankLineEv
FN:15728,_ZN5Catch9XmlWriter15ensureTagClosedEv
FN:15736,_ZN5Catch9XmlWriter15applyFormattingENS_13XmlFormattingE
FN:15740,_ZN5Catch9XmlWriter16writeDeclarationEv
FN:15744,_ZN5Catch9XmlWriter18newlineIfNecessaryEv
FN:15761,_ZN5Catch25prepareExpandedExpressionERNS_15AssertionResultE
FN:15767,_ZN5Catch20getFormattedDurationB5cxx11Ed
FN:15785,_ZN5Catch18shouldShowDurationERKNS_7IConfigEd
FN:15796,_ZN5Catch16serializeFiltersERKSt6vectorINSt7__cxx1112basic_stringIcSt11char_traitsIcESaIcEEESaIS6_EE
FN:15811,_ZN5Catch21TestEventListenerBaseC2ERKNS_14ReporterConfigE
FN:15814,_ZN5Catch21TestEventListenerBase23getSupportedVerbositiesEv
FN:15818,_ZN5Catch21TestEventListenerBase17assertionStartingERKNS_13AssertionInfoE
FN:15820,_ZN5Catch21TestEventListenerBase14assertionEndedERKNS_14AssertionStatsE
FN:15834,_ZN12_GLOBAL__N_112failedStringEv
FN:15835,_ZN12_GLOBAL__N_112passedStringEv
FN:15839,_ZN12_GLOBAL__N_19dimColourEv
FN:15841,_ZN12_GLOBAL__N_19bothOrAllEm
FN:15856,_ZN5Catch12_GLOBAL__N_111printTotalsERSoRKNS_6TotalsE
FN:15893,_ZN5Catch12_GLOBAL__N_116AssertionPrinterC2ERSoRKNS_14AssertionStatsEb
FN:15900,_ZN5Catch12_GLOBAL__N_116AssertionPrinter5printEv
FN:15969,_ZNK5Catch12_GLOBAL__N_116AssertionPrinter15printSourceInfoEv
FN:15974,_ZNK5Catch12_GLOBAL__N_116AssertionPrinter15printResultTypeENS_6Colour4CodeERKNSt7__cxx1112basic_stringIcSt11char_traitsIcESaIcEEE
FN:15984,_ZNK5Catch12_GLOBAL__N_116AssertionPrinter10printIssueERKNSt7__cxx1112basic_stringIcSt11char_traitsIcESaIcEEE
FN:15988,_ZN5Catch12_GLOBAL__N_116AssertionPrinter18printExpressionWasEv
FN:15999,_ZNK5Catch12_GLOBAL__N_116AssertionPrinter23printOriginalExpressionEv
FN:16005,_ZNK5Catch12_GLOBAL__N_116AssertionPrinter28printReconstructedExpressionEv
FN:16015,_ZN5Catch12_GLOBAL__N_116AssertionPrinter12printMessageEv
FN:16022,_ZN5Catch12_GLOBAL__N_116AssertionPrinter22printRemainingMessagesENS_6Colour4CodeE
FN:16058,_ZN5Catch15CompactReporter14getDescriptionB5cxx11Ev
FN:16062,_ZN5Catch15CompactReporter19noMatchingTestCasesERKNSt7__cxx1112basic_stringIcSt11char_traitsIcESaIcEEE
FN:16066,_ZN5Catch15CompactReporter17assertionStartingERKNS_13AssertionInfoE
FN:16068,_ZN5Catch15CompactReporter14assertionEndedERKNS_14AssertionStatsE
FN:16087,_ZN5Catch15CompactReporter12sectionEndedERKNS_12SectionStatsE
FN:16094,_ZN5Catch15CompactReporter12testRunEndedERKNS_12TestRunStatsE
FN:16100,_ZN5Catch15CompactReporterD2Ev
FN:16100,_ZN5Catch15CompactReporterD0Ev
FN:16132,_ZN5Catch12_GLOBAL__N_123ConsoleAssertionPrinterC2ERSoRKNS_14AssertionStatsEb
FN:16206,_ZNK5Catch12_GLOBAL__N_123ConsoleAssertionPrinter5printEv
FN:16219,_ZNK5Catch12_GLOBAL__N_123ConsoleAssertionPrinter15printResultTypeEv
FN:16225,_ZNK5Catch12_GLOBAL__N_123ConsoleAssertionPrinter23printOriginalExpressionEv
FN:16233,_ZNK5Catch12_GLOBAL__N_123ConsoleAssertionPrinter28printReconstructedExpressionEv
FN:16240,_ZNK5Catch12_GLOBAL__N_123ConsoleAssertionPrinter12printMessageEv
FN:16249,_ZNK5Catch12_GLOBAL__N_123ConsoleAssertionPrinter15printSourceInfoEv
FN:16265,_ZN5Catch12_GLOBAL__N_19makeRatioEmm
FN:16270,_ZN5Catch12_GLOBAL__N_17findMaxERmS1_S1_
FN:16369,_ZN5Catch12TablePrinterC2ERSoSt6vectorINS_12_GLOBAL__N_110ColumnInfoESaIS4_EE
FN:16393,_ZN5Catch12TablePrinter5closeEv
FN:16429,_ZN5CatchlsERNS_12TablePrinterENS_12_GLOBAL__N_18RowBreakE
FN:16438,_ZN5Catch15ConsoleReporterC2ERKNS_14ReporterConfigE
FN:16441,_ZZN5Catch15ConsoleReporterC4ERKNS_14ReporterConfigEENKUlvE_clEv
FN:16461,_ZN5Catch15ConsoleReporterD2Ev
FN:16461,_ZN5Catch15ConsoleReporterD0Ev
FN:16463,_ZN5Catch15ConsoleReporter14getDescriptionB5cxx11Ev
FN:16467,_ZN5Catch15ConsoleReporter19noMatchingTestCasesERKNSt7__cxx1112basic_stringIcSt11char_traitsIcESaIcEEE
FN:16471,_ZN5Catch15ConsoleReporter22reportInvalidArgumentsERKNSt7__cxx1112basic_stringIcSt11char_traitsIcESaIcEEE
FN:16475,_ZN5Catch15ConsoleReporter17assertionStartingERKNS_13AssertionInfoE
FN:16477,_ZN5Catch15ConsoleReporter14assertionEndedERKNS_14AssertionStatsE
FN:16494,_ZN5Catch15ConsoleReporter15sectionStartingERKNS_11SectionInfoE
FN:16499,_ZN5Catch15ConsoleReporter12sectionEndedERKNS_12SectionStatsE
FN:16568,_ZN5Catch15ConsoleReporter13testCaseEndedERKNS_13TestCaseStatsE
FN:16573,_ZN5Catch15ConsoleReporter14testGroupEndedERKNS_14TestGroupStatsE
FN:16582,_ZN5Catch15ConsoleReporter12testRunEndedERKNS_12TestRunStatsE
FN:16588,_ZN5Catch15ConsoleReporter15testRunStartingERKNS_11TestRunInfoE
FN:16593,_ZN5Catch15ConsoleReporter9lazyPrintEv
FN:16599,_ZN5Catch15ConsoleReporter37lazyPrintWithoutClosingBenchmarkTableEv
FN:16611,_ZN5Catch15ConsoleReporter16lazyPrintRunInfoEv
FN:16623,_ZN5Catch15ConsoleReporter18lazyPrintGroupInfoEv
FN:16629,_ZN5Catch15ConsoleReporter29printTestCaseAndSectionHeaderEv
FN:16651,_ZN5Catch15ConsoleReporter17printClosedHeaderERKNSt7__cxx1112basic_stringIcSt11char_traitsIcESaIcEEE
FN:16655,_ZN5Catch15ConsoleReporter15printOpenHeaderERKNSt7__cxx1112basic_stringIcSt11char_traitsIcESaIcEEE
FN:16665,_ZN5Catch15ConsoleReporter17printHeaderStringERKNSt7__cxx1112basic_stringIcSt11char_traitsIcESaIcEEEm
FN:16676,_ZN5Catch13SummaryColumnC2ENSt7__cxx1112basic_stringIcSt11char_traitsIcESaIcEEENS_6Colour4CodeE
FN:16679,_ZN5Catch13SummaryColumn6addRowEm
FN:16699,_ZN5Catch15ConsoleReporter11printTotalsERKNS_6TotalsE
FN:16728,_ZN5Catch15ConsoleReporter15printSummaryRowERKNSt7__cxx1112basic_stringIcSt11char_traitsIcESaIcEEERKSt6vectorINS_13SummaryColumnESaISA_EEm
FN:16746,_ZN5Catch15ConsoleReporter18printTotalsDividerERKNS_6TotalsE
FN:16767,_ZN5Catch15ConsoleReporter19printSummaryDividerEv
FN:16771,_ZN5Catch15ConsoleReporter16printTestFiltersEv
FN:16801,_ZN5Catch12_GLOBAL__N_119getCurrentTimestampEv
FN:16827,_ZN5Catch12_GLOBAL__N_111fileNameTagERKSt6vectorINSt7__cxx1112basic_stringIcSt11char_traitsIcESaIcEEESaIS7_EE
FN:16830,_ZZN5Catch12_GLOBAL__N_111fileNameTagERKSt6vectorINSt7__cxx1112basic_stringIcSt11char_traitsIcESaIcEEESaIS7_EEENKUlRKS7_E_clESD_
FN:16840,_ZN5Catch12_GLOBAL__N_114formatDurationEd
FN:16848,_ZN5Catch13JunitReporterC2ERKNS_14ReporterConfigE
FN:16856,_ZN5Catch13JunitReporterD2Ev
FN:16856,_ZN5Catch13JunitReporterD0Ev
FN:16858,_ZN5Catch13JunitReporter14getDescriptionB5cxx11Ev
FN:16862,_ZN5Catch13JunitReporter19noMatchingTestCasesERKNSt7__cxx1112basic_stringIcSt11char_traitsIcESaIcEEE
FN:16864,_ZN5Catch13JunitReporter15testRunStartingERKNS_11TestRunInfoE
FN:16869,_ZN5Catch13JunitReporter17testGroupStartingERKNS_9GroupInfoE
FN:16877,_ZN5Catch13JunitReporter16testCaseStartingERKNS_12TestCaseInfoE
FN:16881,_ZN5Catch13JunitReporter14assertionEndedERKNS_14AssertionStatsE
FN:16887,_ZN5Catch13JunitReporter13testCaseEndedERKNS_13TestCaseStatsE
FN:16893,_ZN5Catch13JunitReporter14testGroupEndedERKNS_14TestGroupStatsE
FN:16899,_ZN5Catch13JunitReporter22testRunEndedCumulativeEv
FN:16903,_ZN5Catch13JunitReporter10writeGroupERKNS_22CumulativeReporterBaseIS0_E4NodeINS_14TestGroupStatsENS3_INS_13TestCaseStatsENS2_11SectionNodeEEEEEd
FN:16941,_ZN5Catch13JunitReporter13writeTestCaseERKNS_22CumulativeReporterBaseIS0_E4NodeINS_13TestCaseStatsENS2_11SectionNodeEEE
FN:16963,_ZN5Catch13JunitReporter12writeSectionERKNSt7__cxx1112basic_stringIcSt11char_traitsIcESaIcEEES8_RKNS_22CumulativeReporterBaseIS0_E11SectionNodeEb
FN:17009,_ZN5Catch13JunitReporter15writeAssertionsERKNS_22CumulativeReporterBaseIS0_E11SectionNodeE
FN:17014,_ZN5Catch13JunitReporter14writeAssertionERKNS_14AssertionStatsE
FN:17082,_ZN5Catch17ListeningReporterC2Ev
FN:17087,_ZN5Catch17ListeningReporter11addListenerEOSt10unique_ptrINS_18IStreamingReporterESt14default_deleteIS2_EE
FN:17091,_ZN5Catch17ListeningReporter11addReporterEOSt10unique_ptrINS_18IStreamingReporterESt14default_deleteIS2_EE
FN:17097,_ZNK5Catch17ListeningReporter14getPreferencesEv
FN:17101,_ZN5Catch17ListeningReporter23getSupportedVerbositiesEv
FN:17105,_ZN5Catch17ListeningReporter19noMatchingTestCasesERKNSt7__cxx1112basic_stringIcSt11char_traitsIcESaIcEEE
FN:17112,_ZN5Catch17ListeningReporter22reportInvalidArgumentsERKNSt7__cxx1112basic_stringIcSt11char_traitsIcESaIcEEE
FN:17147,_ZN5Catch17ListeningReporter15testRunStartingERKNS_11TestRunInfoE
FN:17154,_ZN5Catch17ListeningReporter17testGroupStartingERKNS_9GroupInfoE
FN:17161,_ZN5Catch17ListeningReporter16testCaseStartingERKNS_12TestCaseInfoE
FN:17168,_ZN5Catch17ListeningReporter15sectionStartingERKNS_11SectionInfoE
FN:17175,_ZN5Catch17ListeningReporter17assertionStartingERKNS_13AssertionInfoE
FN:17183,_ZN5Catch17ListeningReporter14assertionEndedERKNS_14AssertionStatsE
FN:17190,_ZN5Catch17ListeningReporter12sectionEndedERKNS_12SectionStatsE
FN:17197,_ZN5Catch17ListeningReporter13testCaseEndedERKNS_13TestCaseStatsE
FN:17204,_ZN5Catch17ListeningReporter14testGroupEndedERKNS_14TestGroupStatsE
FN:17211,_ZN5Catch17ListeningReporter12testRunEndedERKNS_12TestRunStatsE
FN:17218,_ZN5Catch17ListeningReporter8skipTestERKNS_12TestCaseInfoE
FN:17225,_ZNK5Catch17ListeningReporter7isMultiEv
FN:17241,_ZN5Catch11XmlReporterC2ERKNS_14ReporterConfigE
FN:17249,_ZN5Catch11XmlReporterD2Ev
FN:17249,_ZN5Catch11XmlReporterD0Ev
FN:17251,_ZN5Catch11XmlReporter14getDescriptionB5cxx11Ev
FN:17255,_ZNK5Catch11XmlReporter16getStylesheetRefB5cxx11Ev
FN:17259,_ZN5Catch11XmlReporter15writeSourceInfoERKNS_14SourceLineInfoE
FN:17265,_ZN5Catch11XmlReporter19noMatchingTestCasesERKNSt7__cxx1112basic_stringIcSt11char_traitsIcESaIcEEE
FN:17269,_ZN5Catch11XmlReporter15testRunStartingERKNS_11TestRunInfoE
FN:17284,_ZN5Catch11XmlReporter17testGroupStartingERKNS_9GroupInfoE
FN:17290,_ZN5Catch11XmlReporter16testCaseStartingERKNS_12TestCaseInfoE
FN:17304,_ZN5Catch11XmlReporter15sectionStartingERKNS_11SectionInfoE
FN:17314,_ZN5Catch11XmlReporter17assertionStartingERKNS_13AssertionInfoE
FN:17316,_ZN5Catch11XmlReporter14assertionEndedERKNS_14AssertionStatsE
FN:17390,_ZN5Catch11XmlReporter12sectionEndedERKNS_12SectionStatsE
FN:17405,_ZN5Catch11XmlReporter13testCaseEndedERKNS_13TestCaseStatsE
FN:17421,_ZN5Catch11XmlReporter14testGroupEndedERKNS_14TestGroupStatsE
FN:17435,_ZN5Catch11XmlReporter12testRunEndedERKNS_12TestRunStatsE
FN:17523,main
FNDA:0,_ZN5Catch11StringMakerIxvE7convertB5cxx11Ex
FNDA:3,_ZNK5Catch8TestCase15getTestCaseInfoEv
FNDA:0,_ZN5Catch10Generators16GeneratorTracker5closeEv
FNDA:0,_ZN5Catch12_GLOBAL__N_15writeIdEEvRSoT_
FNDA:0,_ZN5Catch9XmlWriter15applyFormattingENS_13XmlFormattingE
FNDA:0,_ZN5Catch20ReusableStringStreamlsINS_5clara8TextFlow6ColumnEEERS0_RKT_
FNDA:0,_ZN5CatchlsERSoRKNS_9XmlEncodeE
FNDA:1,_ZN5Catch5clara6detail7ExeNameC2ERNSt7__cxx1112basic_stringIcSt11char_traitsIcESaIcEEE
FNDA:0,_ZN5Catch17IReporterRegistryD0Ev
FNDA:0,_ZN5Catch21StreamingReporterBaseINS_21TestEventListenerBaseEEC2ERKNS_14ReporterConfigE
FNDA:0,_ZN5Catch24StartupExceptionRegistry3addERKNSt15__exception_ptr13exception_ptrE
FNDA:1,_ZN5Catch10RunContext14testGroupEndedERKNSt7__cxx1112basic_stringIcSt11char_traitsIcESaIcEEERKNS_6TotalsEmm
FNDA:0,_ZN5Catch8Matchers8Floating16WithinRelMatcherC2Edd
FNDA:0,_ZNK5Catch10Generators16GeneratorTracker12hasGeneratorEv
FNDA:0,_ZN5Catch20ReusableStringStreamlsIA25_cEERS0_RKT_
FNDA:1,_ZN5Catch5clara6detail15ResultValueBaseINS1_15ParseResultTypeEEC2ENS1_10ResultBase4TypeERKS3_
FNDA:0,_ZN5Catch20ReusableStringStreamlsIA2_cEERS0_RKT_
FNDA:0,_ZNK5Catch8Matchers8Floating16WithinRelMatcher5matchERKd
FNDA:0,_ZN5Catch5clara6detail15ResultValueBaseINS1_10ParseStateEEaSERKS4_
FNDA:0,_ZNK5Catch10BinaryExprIbbE29streamReconstructedExpressionERSo
FNDA:0,_ZN5Catch16AssertionHandler34handleUnexpectedExceptionNotThrownEv
FNDA:0,_ZN5Catch21StreamingReporterBaseINS_15CompactReporterEE14testGroupEndedERKNS_14TestGroupStatsE
FNDA:0,_ZN5Catch5clara6detail12invokeLambdaINSt7__cxx1112basic_stringIcSt11char_traitsIcESaIcEEEZNS_21makeCommandLineParserERNS_10ConfigDataEEUlRKS8_E_EENS1_11BasicResultINS1_15ParseResultTypeEEERKT0_SC_
FNDA:0,_ZN5Catch17ListeningReporter15testRunStartingERKNS_11TestRunInfoE
FNDA:0,_ZNK5Catch17ReporterRegistrarINS_15CompactReporterEE15ReporterFactory14getDescriptionB5cxx11Ev
FNDA:0,_ZN5Catch5clara6detail11BoundLambdaIZNS_21makeCommandLineParserERNS_10ConfigDataEEUlRKNSt7__cxx1112basic_stringIcSt11char_traitsIcESaIcEEEE4_E8setValueESC_
FNDA:0,_ZN5Catch14TestSpecParser14addNamePatternEv
FNDA:0,_ZN5Catch14AssertionStatsC2ERKNS_15AssertionResultERKSt6vectorINS_11MessageInfoESaIS5_EERKNS_6TotalsE
FNDA:1,_ZNK5Catch6Config15getReporterNameB5cxx11Ev
FNDA:1,_ZN5Catch15ConsoleReporter16printTestFiltersEv
FNDA:1,_ZN5Catch15ConsoleReporter17assertionStartingERKNS_13AssertionInfoE
FNDA:1,_ZN5Catch15IMutableContext13createContextEv
FNDA:0,_ZN5Catch20ReusableStringStreamlsIA7_cEERS0_RKT_
FNDA:0,_ZZN5Catch21makeCommandLineParserERNS_10ConfigDataEENKUlRKNSt7__cxx1112basic_stringIcSt11char_traitsIcESaIcEEEE6_clES9_
FNDA:2,_ZNK5Catch21StreamingReporterBaseINS_15ConsoleReporterEE14getPreferencesEv
FNDA:0,_ZN5Catch6OptionImEdeEv
FNDA:0,_ZN5Catch12ratio_stringISt5ratioILl1ELl1000EEE6symbolB5cxx11Ev
FNDA:0,_ZN5Catch21shouldSuppressFailureEi
FNDA:1,_ZN5Catch7Context16getResultCaptureEv
FNDA:1,_ZNK5Catch5clara6detail11BasicResultINS1_10ParseStateEE9enforceOkEv
FNDA:0,_ZN5Catch9XmlWriter14writeAttributeIdEERS0_RKNSt7__cxx1112basic_stringIcSt11char_traitsIcESaIcEEERKT_
FNDA:0,_ZNK5Catch12_GLOBAL__N_123ConsoleAssertionPrinter28printReconstructedExpressionEv
FNDA:0,_ZN5Catch11XmlReporter14assertionEndedERKNS_14AssertionStatsE
FNDA:0,_ZN5Catch12_GLOBAL__N_14stepIfEET_S2_S2_m
FNDA:0,_ZN5Catch11XmlReporterC2ERKNS_14ReporterConfigE
FNDA:0,_ZN5Catch13SummaryColumn6addRowEm
FNDA:2,_ZN5Catch17cleanupSingletonsEv
FNDA:1,_ZN5Catch5clara6detail13ParserRefImplINS1_3OptEEC2IZNS_21makeCommandLineParserERNS_10ConfigDataEEUlRKNSt7__cxx1112basic_stringIcSt11char_traitsIcESaIcEEEE0_EERKT_SF_
FNDA:0,_ZN5Catch21StreamingReporterBaseINS_21TestEventListenerBaseEE8skipTestERKNS_12TestCaseInfoE
FNDA:0,_ZN5Catch14TestSpecParser17preprocessPatternB5cxx11Ev
FNDA:5,_ZN5Catch11NonCopyableC2Ev
FNDA:0,_ZN5Catch9XmlWriter14writeAttributeERKNSt7__cxx1112basic_stringIcSt11char_traitsIcESaIcEEEb
FNDA:0,_ZN5Catch14TestGroupStatsC2ERKS0_
FNDA:1,_ZN5Catch12_GLOBAL__N_111RegistryHubC2Ev
FNDA:0,_ZN5Catch7VersionC2EjjjPKcj
FNDA:0,_ZN5Catch5clara8TextFlow6Column8iteratorC2ERKS2_
FNDA:1,_ZNK5Catch5clara6detail11BasicResultINS1_10ParseStateEEcvbEv
FNDA:0,_ZN5Catch20ReusableStringStreamlsIxEERS0_RKT_
FNDA:2,_ZN5Catch14cleanUpContextEv
FNDA:0,_ZN5Catch9XmlEncodeC2ERKNSt7__cxx1112basic_stringIcSt11char_traitsIcESaIcEEENS0_7ForWhatE
FNDA:0,_ZNK5Catch15AssertionResult10hasMessageEv
FNDA:0,_ZN5Catch21StreamingReporterBaseINS_11XmlReporterEE17testGroupStartingERKNS_9GroupInfoE
FNDA:0,_ZZN5Catch21makeCommandLineParserERNS_10ConfigDataEENKUlRKNSt7__cxx1112basic_stringIcSt11char_traitsIcESaIcEEEE_clES9_
FNDA:2,_ZN5Catch9GroupInfoC2ERKNSt7__cxx1112basic_stringIcSt11char_traitsIcESaIcEEEmm
FNDA:0,_ZNK5Catch16TestCaseTracking14SectionTracker10getFiltersB5cxx11Ev
FNDA:0,_ZN5Catch14getLineOfCharsILc45EEEPKcv
FNDA:0,_ZN5Catch26IMutableEnumValuesRegistryD0Ev
FNDA:0,_ZN5Catch11StringMakerISt4bytevE7convertB5cxx11ES1_
FNDA:0,_ZN5Catch13JunitReporter16testCaseStartingERKNS_12TestCaseInfoE
FNDA:1,_ZN5Catch16TestCaseTracking11TrackerBase8addChildERKSt10shared_ptrINS0_8ITrackerEE
FNDA:1,_ZNK5Catch6Config24includeSuccessfulResultsEv
FNDA:1,_ZN5Catch7Session16applyCommandLineEiPKPKc
FNDA:0,_ZN5Catch6ConfigD0Ev
FNDA:0,_ZNK5Catch15AssertionResult16getTestMacroNameEv
FNDA:0,_ZN5Catch7SectionD0Ev
FNDA:0,_ZN5Catch6OptionINS_11TestRunInfoEEptEv
FNDA:0,_ZN5Catch16TestCaseTracking11TrackerBase23markAsNeedingAnotherRunEv
FNDA:0,_ZNK5Catch15AssertionResult13getSourceInfoEv
FNDA:1,_ZN5Catch6OptionINS_11TestRunInfoEEaSERKS1_
FNDA:0,_ZN5Catch21StreamingReporterBaseINS_15CompactReporterEE12sectionEndedERKNS_12SectionStatsE
FNDA:0,_ZN5Catch14TestGroupStatsD0Ev
FNDA:0,_ZN5Catch9XmlWriter14writeAttributeIA8_cEERS0_RKNSt7__cxx1112basic_stringIcSt11char_traitsIcESaIcEEERKT_
FNDA:0,_ZN5Catch3rngEv
FNDA:2,_ZNK5Catch14ReporterConfig10fullConfigEv
FNDA:2,_ZN5Catch9StringRefC2Ev
FNDA:0,_ZN5Catch9XmlWriter13ScopedElement14writeAttributeImEERS1_RKNSt7__cxx1112basic_stringIcSt11char_traitsIcESaIcEEERKT_
FNDA:0,_ZN5Catch15CompactReporterD2Ev
FNDA:0,_ZN5Catch22CumulativeReporterBaseINS_13JunitReporterEE17testGroupStartingERKNS_9GroupInfoE
FNDA:0,_ZN5Catch6Detail9stringifyIyEENSt7__cxx1112basic_stringIcSt11char_traitsIcESaIcEEERKT_
FNDA:1,_ZN5Catch10RunContext20invokeActiveTestCaseEv
FNDA:0,_ZN5Catch10RunContext25handleFatalErrorConditionENS_9StringRefE
FNDA:1,_ZN5Catch20ITransientExpressionC2Ebb
FNDA:0,_ZN5Catch13JunitReporterC2ERKNS_14ReporterConfigE
FNDA:1,_ZN5Catch12_GLOBAL__N_19TestGroupC2ERKSt10shared_ptrINS_6ConfigEE
FNDA:0,_ZN5Catch20ReusableStringStreamlsIjEERS0_RKT_
FNDA:0,_ZN5Catch15ConsoleReporter14assertionEndedERKNS_14AssertionStatsE
FNDA:0,_ZNK5Catch5clara8TextFlow6Column8iteratordeB5cxx11Ev
FNDA:1,_ZN5Catch15ConsoleReporter15sectionStartingERKNS_11SectionInfoE
FNDA:1,_ZN5Catch6ConfigC2ERKNS_10ConfigDataE
FNDA:0,_ZN5Catch22CumulativeReporterBaseINS_13JunitReporterEE13BySectionInfoC2ERKS3_
FNDA:0,_ZN5Catch6Detail9stringifyIbEENSt7__cxx1112basic_stringIcSt11char_traitsIcESaIcEEERKT_
FNDA:0,_ZN5Catch12_GLOBAL__N_116AssertionPrinter12printMessageEv
FNDA:0,_ZN5Catch5clara6detail11BasicResultINS1_10ParseStateEEC2IvEERKNS2_IT_EE
FNDA:1,_ZN5Catch21FatalConditionHandler6engageEv
FNDA:0,_ZN5Catch9listTestsERKNS_6ConfigE
FNDA:0,_ZN5Catch16TestCaseTracking11TrackerBase4failEv
FNDA:0,_ZZNK5Catch8TestSpec6Filter7matchesERKNS_12TestCaseInfoEENKUlRKSt10shared_ptrINS0_7PatternEEE_clES9_
FNDA:1,_ZN5Catch21StreamingReporterBaseINS_15ConsoleReporterEE23getSupportedVerbositiesEv
FNDA:0,_ZN5Catch5clara6detail13LambdaInvokerINS1_11BasicResultINS1_15ParseResultTypeEEEE6invokeIZNS_21makeCommandLineParserERNS_10ConfigDataEEUlRKNSt7__cxx1112basic_stringIcSt11char_traitsIcESaIcEEEE_SF_EES5_RKT_RKT0_
FNDA:0,_ZN5Catch8Matchers9WithinULPEdm
FNDA:0,_ZN5Catch13JunitReporter10writeGroupERKNS_22CumulativeReporterBaseIS0_E4NodeINS_14TestGroupStatsENS3_INS_13TestCaseStatsENS2_11SectionNodeEEEEEd
FNDA:0,_ZNK5Catch5clara6detail16BoundFlagRefBase6isFlagEv
FNDA:0,_ZNK5Catch7TagInfo3allB5cxx11Ev
FNDA:0,_ZN5Catch12_GLOBAL__N_111headerValueEh
FNDA:0,_ZZN5Catch4trimENS_9StringRefEENKUlcE_clEc
FNDA:3,_ZN5Catch6OptionINS_11TestRunInfoEE5resetEv
FNDA:0,_ZN5Catch5clara6detail15BoundFlagLambdaIZNS_21makeCommandLineParserERNS_10ConfigDataEEUlbE7_E7setFlagEb
FNDA:0,_ZN5Catch15AssertionResultC2ERKNS_13AssertionInfoERKNS_19AssertionResultDataE
FNDA:0,_ZN5CatchanENS_13XmlFormattingES0_
FNDA:0,_ZN5Catch6Detail12_GLOBAL__N_110FileStreamC2ENS_9StringRefE
FNDA:0,_ZN5Catch9XmlWriter14writeAttributeINS_9StringRefEEERS0_RKNSt7__cxx1112basic_stringIcSt11char_traitsIcESaIcEEERKT_
FNDA:0,_ZN5Catch13JunitReporter15testRunStartingERKNS_11TestRunInfoE
FNDA:0,_ZNK5Catch8Matchers9Exception23ExceptionMessageMatcher8describeB5cxx11Ev
FNDA:0,_ZN5Catch7SectionC2ERKNS_11SectionInfoE
FNDA:0,_ZN5Catch10RunContext16popScopedMessageERKNS_11MessageInfoE
FNDA:0,_ZNK5Catch10RunContext18getCurrentTestNameB5cxx11Ev
FNDA:0,_ZNK5Catch6Counts5allOkEv
FNDA:0,_ZN5Catch21StreamingReporterBaseINS_15CompactReporterEED0Ev
FNDA:0,_ZNK5Catch6Detail6Approx22equalityComparisonImplEd
FNDA:0,_ZNK5Catch12_GLOBAL__N_116AssertionPrinter23printOriginalExpressionEv
FNDA:0,_ZN5Catch8Matchers4Impl18MatcherUntypedBaseC2Ev
FNDA:30,_ZNK5Catch5clara6detail6ParserorINS1_3OptEEES2_RKT_
FNDA:1,_ZN5Catch6TotalspLERKS0_
FNDA:1,_ZN5Catch16TestCaseTracking11TrackerBase10moveToThisEv
FNDA:0,_ZN5Catch13JunitReporter22testRunEndedCumulativeEv
FNDA:1,_ZN5Catch10RunContext7runTestERKNS_8TestCaseE
FNDA:51,_ZN5Catch5clara6detail3OptixERKNSt7__cxx1112basic_stringIcSt11char_traitsIcESaIcEEE
FNDA:0,_ZN5Catch5clara6detail15ResultValueBaseINS1_15ParseResultTypeEED0Ev
FNDA:0,_ZN5Catch11XmlReporterD0Ev
FNDA:0,_ZN5Catch5clara6detail13BoundValueRefIjE8setValueERKNSt7__cxx1112basic_stringIcSt11char_traitsIcESaIcEEE
FNDA:0,_ZN5Catch6Detail12_GLOBAL__N_114DebugOutStreamD0Ev
FNDA:1,_ZN5Catch12_GLOBAL__N_114createReporterERKNSt7__cxx1112basic_stringIcSt11char_traitsIcESaIcEEERKSt10shared_ptrIKNS_7IConfigEE
FNDA:0,_ZN5Catch5clara8TextFlow6SpacerC2Em
FNDA:0,_ZN5Catch5clara6detail15ResultValueBaseINS1_15ParseResultTypeEEC2ERKS4_
FNDA:3,_ZN5Catch5clara6detail7ExeNameC2Ev
FNDA:0,_ZNK5Catch7Session3cliEv
FNDA:0,_ZN5Catch25prepareExpandedExpressionERNS_15AssertionResultE
FNDA:0,_ZN5Catch17ListeningReporter17testGroupStartingERKNS_9GroupInfoE
FNDA:4,_ZN5Catch9StringRefC2EPKc
FNDA:0,_ZN5Catch8Matchers9StdString15EndsWithMatcherC2ERKNS1_11CasedStringE
FNDA:0,_ZN5Catch11StringMakerISt17basic_string_viewIcSt11char_traitsIcEEvE7convertB5cxx11ES4_
FNDA:0,_ZN5Catch15ConsoleReporter14getDescriptionB5cxx11Ev
FNDA:1,_ZN5Catch6Config10openStreamEv
FNDA:0,_ZN5Catch20ReusableStringStreamlsIfEERS0_RKT_
FNDA:0,_ZN5Catch5clara8TextFlow7ColumnsplERKNS1_6ColumnE
FNDA:0,_ZN5Catch5clara6detail13LambdaInvokerIvE6invokeIZNS_21makeCommandLineParserERNS_10ConfigDataEEUliE8_iEENS1_11BasicResultINS1_15ParseResultTypeEEERKT_RKT0_
FNDA:3,_ZNK5Catch6Config4nameB5cxx11Ev
FNDA:1,_ZN5Catch6OptionINS_15AssertionResultEED2Ev
FNDA:1,_ZN5Catch5clara6detail11BoundLambdaIZNS_21makeCommandLineParserERNS_10ConfigDataEEUlRKNSt7__cxx1112basic_stringIcSt11char_traitsIcESaIcEEEE2_EC2ERKSD_
FNDA:0,_ZNK5Catch5clara8TextFlow6Column3endEv
FNDA:0,_ZN5Catch16serializeFiltersERKSt6vectorINSt7__cxx1112basic_stringIcSt11char_traitsIcESaIcEEESaIS6_EE
FNDA:1,_ZN5Catch6OptionINS_11TestRunInfoEED2Ev
FNDA:0,_ZZN5Catch5clara6detail11convertIntoERKNSt7__cxx1112basic_stringIcSt11char_traitsIcESaIcEEERbENKUlhE_clEh
FNDA:0,_ZN5Catch13JunitReporter14testGroupEndedERKNS_14TestGroupStatsE
FNDA:1,_ZN5Catch8TestCaseC2EPNS_12ITestInvokerEONS_12TestCaseInfoE
FNDA:0,_ZNK5Catch8TestCaseltERKS0_
FNDA:0,_ZN5Catch21StreamingReporterBaseINS_11XmlReporterEE13testCaseEndedERKNS_13TestCaseStatsE
FNDA:0,_ZN5Catch20ReusableStringStreamlsISt13_SetprecisionEERS0_RKT_
FNDA:0,_ZNK5Catch17ReporterRegistrarINS_13JunitReporterEE15ReporterFactory14getDescriptionB5cxx11Ev
FNDA:0,_ZNK5Catch17ListeningReporter7isMultiEv
FNDA:0,_ZN5Catch5clara8TextFlow7Columns8iteratorC2ERKS2_
FNDA:0,_ZN5Catch5clara6detail11BoundLambdaIZNS_21makeCommandLineParserERNS_10ConfigDataEEUlRKNSt7__cxx1112basic_stringIcSt11char_traitsIcESaIcEEEE5_E8setValueESC_
FNDA:0,_ZN5CatchorENS_13XmlFormattingES0_
FNDA:1,_ZN5Catch9sortTestsERKNS_7IConfigERKSt6vectorINS_8TestCaseESaIS4_EE
FNDA:0,_ZZZN5Catch21makeCommandLineParserERNS_10ConfigDataEENKUlRKNSt7__cxx1112basic_stringIcSt11char_traitsIcESaIcEEEE_clES9_ENKUlvE_clEv
FNDA:0,_ZNK5Catch9StringRef4sizeEv
FNDA:0,_ZN5Catch7TagInfo3addERKNSt7__cxx1112basic_stringIcSt11char_traitsIcESaIcEEE
FNDA:1,_ZN5Catch12_GLOBAL__N_111RegistryHub12registerTestERKNS_8TestCaseE
FNDA:0,_ZN5Catch11XmlReporter15writeSourceInfoERKNS_14SourceLineInfoE
FNDA:0,_ZZN5Catch8CapturerC4ENS_9StringRefERKNS_14SourceLineInfoENS_9ResultWas6OfTypeES1_ENKUlmmE_clEmm
FNDA:0,_ZN5Catch21StreamingReporterBaseINS_11XmlReporterEED0Ev
FNDA:0,_ZNK5Catch6Config16shouldDebugBreakEv
FNDA:0,_ZNK5Catch8Matchers9Exception23ExceptionMessageMatcher5matchERKSt9exception
FNDA:0,_ZNK5Catch11XmlReporter16getStylesheetRefB5cxx11Ev
FNDA:0,_ZN5Catch4clogEv
FNDA:1,_ZN5Catch12_GLOBAL__N_17findMaxERmS1_S1_
FNDA:1,_ZNK5Catch6OptionImE4someEv
FNDA:0,_ZN5Catch14libraryVersionEv
FNDA:0,_ZN5Catch5clara6detail11BoundLambdaIZNS_21makeCommandLineParserERNS_10ConfigDataEEUlRKNSt7__cxx1112basic_stringIcSt11char_traitsIcESaIcEEEE0_E8setValueESC_
FNDA:1,_ZNK5Catch5clara6detail6ParserorINS1_4HelpEEES2_RKT_
FNDA:2,_ZNK5Catch8TestSpec14getInvalidArgsB5cxx11Ev
FNDA:0,_ZNK5Catch5clara6detail6Parser13writeToStreamERSo
FNDA:0,_ZN5Catch9XmlWriter13ScopedElement14writeAttributeIA31_cEERS1_RKNSt7__cxx1112basic_stringIcSt11char_traitsIcESaIcEEERKT_
FNDA:1,_ZN5Catch16TestCaseTracking14SectionTracker7tryOpenEv
FNDA:0,_ZN5Catch12ITestInvokerD0Ev
FNDA:4,_ZN5Catch6ColourC2ENS0_4CodeE
FNDA:0,_ZNK5Catch5clara6detail3Opt5parseERKNSt7__cxx1112basic_stringIcSt11char_traitsIcESaIcEEERKNS1_11TokenStreamE
FNDA:0,_ZN5Catch5clara8TextFlow17isBreakableBeforeEc
FNDA:0,_ZNK5Catch5clara6detail3Arg5parseERKNSt7__cxx1112basic_stringIcSt11char_traitsIcESaIcEEERKNS1_11TokenStreamE
FNDA:0,_ZN5Catch5clara8TextFlow7ColumnspLERKNS1_6ColumnE
FNDA:1,_ZN5Catch5clara6detail13ParserRefImplINS1_3OptEEC2IZNS_21makeCommandLineParserERNS_10ConfigDataEEUlRKNSt7__cxx1112basic_stringIcSt11char_traitsIcESaIcEEEE3_EERKT_SF_
FNDA:0,_ZNK5Catch17ReporterRegistrarINS_15CompactReporterEE15ReporterFactory6createERKNS_14ReporterConfigE
FNDA:0,_ZN5Catch5clara8TextFlow12isWhitespaceEc
FNDA:0,_ZN5Catch20getFormattedDurationB5cxx11Ed
FNDA:0,_ZN5Catch19throw_runtime_errorERKNSt7__cxx1112basic_stringIcSt11char_traitsIcESaIcEEE
FNDA:1,_ZN5Catch6Detail12_GLOBAL__N_110CoutStreamD2Ev
FNDA:0,_ZNK5Catch5clara8TextFlow6Column8iteratorneERKS3_
FNDA:0,_ZNK5Catch6Config8showHelpEv
FNDA:0,_ZN5Catch8TestSpec10TagPatternC2ERKNSt7__cxx1112basic_stringIcSt11char_traitsIcESaIcEEES9_
FNDA:0,_ZN5Catch5isnanEf
FNDA:1690,_ZN5Catch5clara6detail10ParserBaseD2Ev
FNDA:0,_ZNK5Catch18GeneratorException4whatEv
FNDA:0,_ZN5Catch27getEstimatedClockResolutionEv
FNDA:0,_ZN5Catch9XmlWriter14writeBlankLineEv
FNDA:0,_ZN5Catch4trimENS_9StringRefE
FNDA:0,_ZN5Catch5clara6detail11convertIntoIdEENS1_11BasicResultINS1_15ParseResultTypeEEERKNSt7__cxx1112basic_stringIcSt11char_traitsIcESaIcEEERT_
FNDA:0,_ZN5Catch10Generators20GeneratorUntypedBaseD0Ev
FNDA:0,_ZN5Catch21TestEventListenerBaseC2ERKNS_14ReporterConfigE
FNDA:0,_ZN5Catch6Detail12_GLOBAL__N_113StreamBufImplINS1_17OutputDebugWriterELm256EED0Ev
FNDA:0,_ZN5Catch17ListeningReporter13testCaseEndedERKNS_13TestCaseStatsE
FNDA:1,_ZN5Catch19IMutableRegistryHubD2Ev
FNDA:1,_ZN5Catch16TestCaseTracking14TrackerContext13completeCycleEv
FNDA:0,_ZN5Catch10RunContextD0Ev
FNDA:0,_ZN5Catch8Matchers6EqualsERKNSt7__cxx1112basic_stringIcSt11char_traitsIcESaIcEEENS_13CaseSensitive6ChoiceE
FNDA:0,_ZNK5Catch22CumulativeReporterBaseINS_13JunitReporterEE14getPreferencesEv
FNDA:0,_ZN5Catch12_GLOBAL__N_116AssertionPrinterC2ERSoRKNS_14AssertionStatsEb
FNDA:0,_ZN5Catch17ListeningReporter14testGroupEndedERKNS_14TestGroupStatsE
FNDA:1,_ZN5Catch5clara6detail13ParserRefImplINS1_3OptEEC2IZNS_21makeCommandLineParserERNS_10ConfigDataEEUlRKNSt7__cxx1112basic_stringIcSt11char_traitsIcESaIcEEEE2_EERKT_SF_
FNDA:0,_ZNK5Catch16TestCaseTracking11TrackerBase6isOpenEv
FNDA:0,_ZNK5Catch5clara6detail3Opt7isMatchERKNSt7__cxx1112basic_stringIcSt11char_traitsIcESaIcEEE
FNDA:0,_ZN5Catch12_GLOBAL__N_1lsERSoRKNS_20ITransientExpressionE
FNDA:0,_ZN5Catch9XmlWriter13ScopedElementC2EPS0_NS_13XmlFormattingE
FNDA:0,_ZNK5Catch5clara6detail3Opt14getHelpColumnsEv
FNDA:0,_ZN5Catch13listReportersEv
FNDA:0,_ZNK5Catch9StringRefixEm
FNDA:0,_ZN5Catch5clara6detail11BasicResultINS1_10ParseStateEEC2ENS1_10ResultBase4TypeERKNSt7__cxx1112basic_stringIcSt11char_traitsIcESaIcEEE
FNDA:0,_ZN5Catch5clara6detail11convertIntoIjEENS1_11BasicResultINS1_15ParseResultTypeEEERKNSt7__cxx1112basic_stringIcSt11char_traitsIcESaIcEEERT_
FNDA:0,_ZN5Catch8Matchers10StartsWithERKNSt7__cxx1112basic_stringIcSt11char_traitsIcESaIcEEENS_13CaseSensitive6ChoiceE
FNDA:0,_ZN5Catch10Generators16GeneratorTracker7acquireERNS_16TestCaseTracking14TrackerContextERKNS2_15NameAndLocationE
FNDA:0,_ZN5Catch10RunContext16handleIncompleteERKNS_13AssertionInfoE
FNDA:0,_ZN5Catch8Capturer12captureValueEmRKNSt7__cxx1112basic_stringIcSt11char_traitsIcESaIcEEE
FNDA:0,_ZZNK5Catch8TestSpec7matchesERKNS_12TestCaseInfoEENKUlRKNS0_6FilterEE_clES6_
FNDA:13,_ZN5Catch5clara6detail13ParserRefImplINS1_3OptEEC2ERKSt10shared_ptrINS1_8BoundRefEE
FNDA:0,_ZN5Catch12_GLOBAL__N_114formatDurationEd
FNDA:0,_ZN5Catch20ReusableStringStreamD0Ev
FNDA:1,_ZN5Catch14TestGroupStatsC2ERKNS_9GroupInfoERKNS_6TotalsEb
FNDA:1,_ZN5Catch5clara6detail3OptC2IZNS_21makeCommandLineParserERNS_10ConfigDataEEUliE8_EERKT_RKNSt7__cxx1112basic_stringIcSt11char_traitsIcESaIcEEE
FNDA:1,_ZN5Catch26FatalConditionHandlerGuardD2Ev
FNDA:0,_ZN5Catch8Matchers9StdString12RegexMatcherC2ENSt7__cxx1112basic_stringIcSt11char_traitsIcESaIcEEENS_13CaseSensitive6ChoiceE
FNDA:2,_ZNK5Catch12_GLOBAL__N_111RegistryHub19getReporterRegistryEv
FNDA:0,_ZN5Catch9XmlWriter14writeAttributeIA5_cEERS0_RKNSt7__cxx1112basic_stringIcSt11char_traitsIcESaIcEEERKT_
FNDA:0,_ZN5Catch12_GLOBAL__N_115almostEqualUlpsIdEEbT_S2_m
FNDA:0,_ZN5CatchlsERSoRKNS_7VersionE
FNDA:0,_ZN5Catch6Detail12_GLOBAL__N_110FileStreamD2Ev
FNDA:4,_ZN5Catch16ReporterRegistry16registerReporterERKNSt7__cxx1112basic_stringIcSt11char_traitsIcESaIcEEERKSt10shared_ptrINS_16IReporterFactoryEE
FNDA:0,_ZNK5Catch5clara6detail6Parser8validateEv
FNDA:1,_ZN5Catch10makeStreamERKNS_9StringRefE
FNDA:0,_ZN5Catch7IConfigD0Ev
FNDA:1,_ZN5Catch5clara6detail13ParserRefImplINS1_3OptEEC2IlEERT_RKNSt7__cxx1112basic_stringIcSt11char_traitsIcESaIcEEE
FNDA:1,_ZN5Catch12TestRegistry12registerTestERKNS_8TestCaseE
FNDA:1,_ZN5Catch12_GLOBAL__N_122platformColourInstanceEv
FNDA:1,_ZN5Catch12TestRegistryD2Ev
FNDA:0,_ZN5Catch9XmlWriter14writeAttributeImEERS0_RKNSt7__cxx1112basic_stringIcSt11char_traitsIcESaIcEEERKT_
FNDA:1,_ZN5Catch21StreamingReporterBaseINS_15ConsoleReporterEE15sectionStartingERKNS_11SectionInfoE
FNDA:0,_ZN5Catch22CumulativeReporterBaseINS_13JunitReporterEE4NodeINS_14TestGroupStatsENS3_INS_13TestCaseStatsENS2_11SectionNodeEEEED0Ev
FNDA:0,_ZN5Catch22CumulativeReporterBaseINS_13JunitReporterEE16testCaseStartingERKNS_12TestCaseInfoE
FNDA:0,_ZN5Catch15CompactReporter19noMatchingTestCasesERKNSt7__cxx1112basic_stringIcSt11char_traitsIcESaIcEEE
FNDA:0,_ZNK5Catch8TestCaseeqERKS0_
FNDA:0,_ZN5Catch5clara8TextFlowlsERSoRKNS1_7ColumnsE
FNDA:0,_ZN5Catch22CumulativeReporterBaseINS_13JunitReporterEE12testRunEndedERKNS_12TestRunStatsE
FNDA:0,_ZN5Catch5isnanEd
FNDA:1,_ZN5Catch5clara6detail11BoundLambdaIZNS_21makeCommandLineParserERNS_10ConfigDataEEUlRKNSt7__cxx1112basic_stringIcSt11char_traitsIcESaIcEEEE1_EC2ERKSD_
FNDA:1,_ZN5Catch7AutoRegC2EPNS_12ITestInvokerERKNS_14SourceLineInfoERKNS_9StringRefERKNS_11NameAndTagsE
FNDA:0,_ZNK5Catch20ITransientExpression18isBinaryExpressionEv
FNDA:0,_ZN5Catch29formatReconstructedExpressionERSoRKNSt7__cxx1112basic_stringIcSt11char_traitsIcESaIcEEENS_9StringRefES8_
FNDA:1,_ZN5Catch6OptionINS_9GroupInfoEEaSERKS1_
FNDA:1,_ZN5Catch5clara6detail4HelpC2ERb
FNDA:1,_ZN5Catch6OptionINS_12TestCaseInfoEED2Ev
FNDA:0,_ZN5Catch21StreamingReporterBaseINS_15CompactReporterEE16testCaseStartingERKNS_12TestCaseInfoE
FNDA:0,_ZN5Catch10startsWithERKNSt7__cxx1112basic_stringIcSt11char_traitsIcESaIcEEES7_
FNDA:0,_ZN5Catch10isJustInfoEi
FNDA:1,_ZNK5Catch9StringRef3endEv
FNDA:0,_ZN5Catch12_GLOBAL__N_111RegistryHub28getMutableEnumValuesRegistryEv
FNDA:0,_ZN5Catch8Matchers4Impl18MatcherUntypedBaseD2Ev
FNDA:0,_ZN5Catch22CumulativeReporterBaseINS_13JunitReporterEE4NodeINS_14TestGroupStatsENS3_INS_13TestCaseStatsENS2_11SectionNodeEEEEC2ERKS4_
FNDA:0,_ZN5Catch11StringMakerISt17basic_string_viewIwSt11char_traitsIwEEvE7convertB5cxx11ES4_
FNDA:1,_ZN5Catch17ReporterRegistrarINS_15CompactReporterEEC2ERKNSt7__cxx1112basic_stringIcSt11char_traitsIcESaIcEEE
FNDA:0,_ZN5Catch6Detail6ApproxC2IivEERKT_
FNDA:0,_ZNK5Catch8TestSpec7Pattern4nameB5cxx11Ev
FNDA:0,_ZN5Catch20ReusableStringStreamlsIdEERS0_RKT_
FNDA:0,_ZN5Catch12_GLOBAL__N_111RegistryHub18registerTranslatorEPKNS_20IExceptionTranslatorE
FNDA:0,_ZNK5Catch8Matchers8Floating17WithinUlpsMatcher5matchERKd
FNDA:3,_ZNK5Catch6Config8runOrderEv
FNDA:0,_ZN5Catch6Detail12_GLOBAL__N_119extractInstanceNameENS_9StringRefE
FNDA:1,_ZN5Catch5clara6detail11BasicResultINS1_15ParseResultTypeEE2okIS3_EES4_RKT_
FNDA:1,_ZN5Catch5clara6detail15BoundFlagLambdaIZNS_21makeCommandLineParserERNS_10ConfigDataEEUlbE7_EC2ERKS5_
FNDA:0,_ZN5CatchlsERSoRKNS_14LazyExpressionE
FNDA:0,_ZN5Catch16AssertionHandler25handleThrowingCallSkippedEv
FNDA:0,_ZN5Catch17IGeneratorTrackerD0Ev
FNDA:1,_ZN5Catch18shouldShowDurationERKNS_7IConfigEd
FNDA:0,_ZN5Catch5clara8TextFlow6ColumnplERKS2_
FNDA:7,_ZNK5Catch6Counts5totalEv
FNDA:0,_ZN5Catch5clara6detail11isOptPrefixEc
FNDA:0,_ZNK5Catch12TestRegistry11getAllTestsEv
FNDA:0,_ZN5Catch21StreamingReporterBaseINS_15CompactReporterEEC2ERKNS_14ReporterConfigE
FNDA:0,_ZNK5Catch8Matchers9StdString12RegexMatcher5matchERKNSt7__cxx1112basic_stringIcSt11char_traitsIcESaIcEEE
FNDA:1,_ZN5Catch21StreamingReporterBaseINS_15ConsoleReporterEE12sectionEndedERKNS_12SectionStatsE
FNDA:0,_ZN5Catch10RunContext10reportExprERKNS_13AssertionInfoENS_9ResultWas6OfTypeEPKNS_20ITransientExpressionEb
FNDA:0,_ZNK5Catch8Matchers8Floating16WithinAbsMatcher8describeB5cxx11Ev
FNDA:0,_ZN5Catch16RedirectedStreamD2Ev
FNDA:1,_ZNK5Catch6OptionImEcvbEv
FNDA:0,_ZN5Catch20ReusableStringStreamlsImEERS0_RKT_
FNDA:1,_ZN5Catch12LeakDetectorD2Ev
FNDA:0,_ZN5Catch15ConsoleReporter29printTestCaseAndSectionHeaderEv
FNDA:0,_ZNK5Catch10RunContext8reporterEv
FNDA:0,_ZNK5Catch8Matchers8Floating16WithinAbsMatcher5matchERKd
FNDA:0,_ZNK5Catch11MessageInfoltERKS0_
FNDA:2,_ZN5Catch5clara6detail13BoundValueRefISt6vectorINSt7__cxx1112basic_stringIcSt11char_traitsIcESaIcEEESaIS9_EEEC2ERSB_
FNDA:0,_ZNK5Catch12_GLOBAL__N_123ConsoleAssertionPrinter15printSourceInfoEv
FNDA:2,_ZN5CatchlsERSoRKNS_9pluraliseE
FNDA:2,_ZN5Catch16TestCaseTracking8ITrackerC2ERKNS0_15NameAndLocationE
FNDA:0,_ZN5Catch20ReusableStringStreamC2Ev
FNDA:0,_ZNK5Catch15AssertionResult4isOkEv
FNDA:0,_ZNK5Catch8TestCase8withNameERKNSt7__cxx1112basic_stringIcSt11char_traitsIcESaIcEEE
FNDA:0,_ZN5Catch14TestSpecParser8separateEv
FNDA:1,_ZNK5Catch8TestCase6invokeEv
FNDA:0,_ZN5Catch5clara6detail12invokeLambdaINSt7__cxx1112basic_stringIcSt11char_traitsIcESaIcEEEZNS_21makeCommandLineParserERNS_10ConfigDataEEUlRKS8_E6_EENS1_11BasicResultINS1_15ParseResultTypeEEERKT0_SC_
FNDA:0,_ZNK5Catch15AssertionResult13getExpressionB5cxx11Ev
FNDA:1,_ZN5Catch17ReporterRegistrarINS_15ConsoleReporterEEC2ERKNSt7__cxx1112basic_stringIcSt11char_traitsIcESaIcEEE
FNDA:1,_ZN5Catch21FatalConditionHandler15engage_platformEv
FNDA:0,_ZN5Catch11SimplePcg327discardEm
FNDA:1,_ZN5Catch7Session3runEv
FNDA:0,_ZN5Catch20ReusableStringStreamlsINSt7__cxx1112basic_stringIcSt11char_traitsIcESaIcEEEEERS0_RKT_
FNDA:0,_ZN5Catch15CompactReporterD0Ev
FNDA:2,_ZN5Catch16TestCaseTracking14TrackerContext17setCurrentTrackerEPNS0_8ITrackerE
FNDA:1,_ZN5Catch6OptionINS_15AssertionResultEEC2Ev
FNDA:2,_ZN5Catch16TestCaseTracking15NameAndLocationC2ERKNSt7__cxx1112basic_stringIcSt11char_traitsIcESaIcEEERKNS_14SourceLineInfoE
FNDA:0,_ZN5Catch15CompactReporter14getDescriptionB5cxx11Ev
FNDA:0,_ZNK5Catch16RedirectedStdErr3strB5cxx11Ev
FNDA:0,_ZN5Catch9XmlWriter13ScopedElement14writeAttributeIA8_cEERS1_RKNSt7__cxx1112basic_stringIcSt11char_traitsIcESaIcEEERKT_
FNDA:0,_ZN5Catch20ReusableStringStreamD2Ev
FNDA:0,_ZN5Catch12_GLOBAL__N_111RegistryHub24registerStartupExceptionEv
FNDA:0,_ZN5Catch11StringMakerIdvE7convertB5cxx11Ed
FNDA:3,_ZN5Catch5clara6detail13BoundValueRefINSt7__cxx1112basic_stringIcSt11char_traitsIcESaIcEEEEC2ERS8_
FNDA:0,_ZN5Catch22CumulativeReporterBaseINS_13JunitReporterEE17assertionStartingERKNS_13AssertionInfoE
FNDA:0,_ZNK5Catch8Matchers9StdString13EqualsMatcher5matchERKNSt7__cxx1112basic_stringIcSt11char_traitsIcESaIcEEE
FNDA:0,_ZN5Catch11StringMakerIcvE7convertB5cxx11Ec
FNDA:1,_ZN5Catch5clara6detail11TokenStreamC2ERKNS1_4ArgsE
FNDA:0,_ZN5Catch22CumulativeReporterBaseINS_13JunitReporterEEC2ERKNS_14ReporterConfigE
FNDA:0,_ZN5Catch7Context9getRunnerEv
FNDA:2,_ZN5Catch16TestCaseTracking8ITrackerD2Ev
FNDA:0,_ZN12_GLOBAL__N_116marginComparisonEddd
FNDA:0,_ZN5Catch22CumulativeReporterBaseINS_13JunitReporterEE15testRunStartingERKNS_11TestRunInfoE
FNDA:0,_ZN5Catch11XmlReporter19noMatchingTestCasesERKNSt7__cxx1112basic_stringIcSt11char_traitsIcESaIcEEE
FNDA:0,_ZNK5Catch9StringRef6substrEmm
FNDA:0,_ZN5Catch21StreamingReporterBaseINS_11XmlReporterEE23getSupportedVerbositiesEv
FNDA:0,_ZNK5Catch19AssertionResultData21reconstructExpressionB5cxx11Ev
FNDA:1,_ZN5Catch16extractClassNameB5cxx11ERKNS_9StringRefE
FNDA:0,_ZN5Catch9XmlWriter9writeTextERKNSt7__cxx1112basic_stringIcSt11char_traitsIcESaIcEEENS_13XmlFormattingE
FNDA:0,_ZN5Catch16IReporterFactoryD0Ev
FNDA:1,_ZN5Catch12_GLOBAL__N_111IColourImplD2Ev
FNDA:0,_ZN5Catch6Detail18EnumValuesRegistry12registerEnumENS_9StringRefES2_RKSt6vectorIiSaIiEE
FNDA:0,_ZNK5Catch5clara6detail13ParserRefImplINS1_3ArgEE4hintB5cxx11Ev
FNDA:0,_ZN5Catch5clara6detail13LambdaInvokerIvE6invokeIZNS_21makeCommandLineParserERNS_10ConfigDataEEUlbE7_bEENS1_11BasicResultINS1_15ParseResultTypeEEERKT_RKT0_
FNDA:1,_ZNK5Catch6Config13listReportersEv
FNDA:0,_ZN5Catch9XmlWriter13scopedElementERKNSt7__cxx1112basic_stringIcSt11char_traitsIcESaIcEEENS_13XmlFormattingE
FNDA:0,_ZNK5Catch6Config27benchmarkConfidenceIntervalEv
FNDA:1,_ZN5Catch10ISingletonD2Ev
FNDA:0,_ZN5Catch11StringMakerIjvE7convertB5cxx11Ej
FNDA:0,_ZN5Catch8Matchers9WithinULPEfm
FNDA:0,_ZN5Catch21StreamingReporterBaseINS_11XmlReporterEE22reportInvalidArgumentsERKNSt7__cxx1112basic_stringIcSt11char_traitsIcESaIcEEE
FNDA:0,_ZN5Catch20IExceptionTranslatorD2Ev
FNDA:0,_ZNK5Catch5clara8TextFlow7Columns3endEv
FNDA:0,_ZZN5Catch5clara6detail4HelpC4ERbENKUlbE_clEb
FNDA:1,_ZN5Catch10RunContext24handleUnfinishedSectionsEv
FNDA:4,_ZN5Catch6OptionINS_12TestCaseInfoEE5resetEv
FNDA:0,_ZN5Catch20ReusableStringStreamlsIA15_cEERS0_RKT_
FNDA:1,_ZN5Catch16TestCaseTracking14SectionTracker14addNextFiltersERKSt6vectorINSt7__cxx1112basic_stringIcSt11char_traitsIcESaIcEEESaIS8_EE
FNDA:1,_ZNK5Catch21TestInvokerAsFunction6invokeEv
FNDA:0,_ZN5Catch19IMutableRegistryHubD0Ev
FNDA:0,_ZN5Catch22CumulativeReporterBaseINS_13JunitReporterEE4NodeINS_12TestRunStatsENS3_INS_14TestGroupStatsENS3_INS_13TestCaseStatsENS2_11SectionNodeEEEEEED0Ev
FNDA:0,_ZN5Catch6Detail12_GLOBAL__N_113StreamBufImplINS1_17OutputDebugWriterELm256EE8overflowEi
FNDA:0,_ZN5Catch20ReusableStringStreamlsIA27_cEERS0_RKT_
FNDA:0,_ZZN5Catch8CapturerC4ENS_9StringRefERKNS_14SourceLineInfoENS_9ResultWas6OfTypeES1_ENKUlmcE0_clEmc
FNDA:0,_ZN5Catch9XmlWriter13ScopedElement14writeAttributeIdEERS1_RKNSt7__cxx1112basic_stringIcSt11char_traitsIcESaIcEEERKT_
FNDA:0,_ZN5Catch5clara6detail13LambdaInvokerINS1_11BasicResultINS1_15ParseResultTypeEEEE6invokeIZNS1_4HelpC4ERbEUlbE_bEES5_RKT_RKT0_
FNDA:0,_ZN5Catch5clara8TextFlow6Column8iteratorppEv
FNDA:0,_ZN5Catch8endsWithERKNSt7__cxx1112basic_stringIcSt11char_traitsIcESaIcEEEc
FNDA:0,_ZN5Catch11StringMakerIavE7convertB5cxx11Ea
FNDA:0,_ZN5Catch15WildcardPatternD0Ev
FNDA:1,_ZN5Catch27enforceNoDuplicateTestCasesERKSt6vectorINS_8TestCaseESaIS1_EE
FNDA:1,_ZN5Catch11NameAndTagsC2ERKNS_9StringRefES3_
FNDA:1,_ZN5Catch7SessionC2Ev
FNDA:0,_ZN5Catch5clara6detail11BasicResultINS1_10ParseStateEEC2INS1_15ParseResultTypeEEERKNS2_IT_EE
FNDA:0,_ZZN5Catch10Generators16GeneratorTracker5closeEvENKUlvE_clEv
FNDA:0,_ZN5Catch11StringMakerIPcvE7convertB5cxx11ES1_
FNDA:0,_ZN5Catch10RunContext14assertionEndedERKNS_15AssertionResultE
FNDA:0,_ZN5Catch13parseTestSpecERKNSt7__cxx1112basic_stringIcSt11char_traitsIcESaIcEEE
FNDA:0,_ZN5Catch6Detail9stringifyIxEENSt7__cxx1112basic_stringIcSt11char_traitsIcESaIcEEERKT_
FNDA:0,_ZN5Catch10RunContext22exceptionEarlyReportedEv
FNDA:1,_ZN5Catch10ErrnoGuardD2Ev
FNDA:0,_ZN5Catch21StreamingReporterBaseINS_15CompactReporterEE23getSupportedVerbositiesEv
FNDA:2,_ZN5Catch7cleanUpEv
FNDA:1,_ZN5Catch7ContextD2Ev
FNDA:0,_ZN5Catch20ReusableStringStreamlsIA1_cEERS0_RKT_
FNDA:0,_ZN5Catch5clara8TextFlow7Columns8iteratorppEv
FNDA:2,_ZN5Catch5clara6detail13BoundValueRefIdEC2ERd
FNDA:5,_ZN5Catch11NonCopyableD2Ev
FNDA:0,_ZN5Catch7IRunnerD0Ev
FNDA:0,_ZN5Catch6Detail9stringifyIcEENSt7__cxx1112basic_stringIcSt11char_traitsIcESaIcEEERKT_
FNDA:0,_ZN5Catch9XmlWriterD2Ev
FNDA:0,_ZN5Catch5clara6detail11BoundLambdaIZNS_21makeCommandLineParserERNS_10ConfigDataEEUlRKNSt7__cxx1112basic_stringIcSt11char_traitsIcESaIcEEEE_E8setValueESC_
FNDA:2,_ZN5Catch5clara6detail3OptC2IdEERT_RKNSt7__cxx1112basic_stringIcSt11char_traitsIcESaIcEEE
FNDA:0,_ZN5Catch22CumulativeReporterBaseINS_13JunitReporterEE14testGroupEndedERKNS_14TestGroupStatsE
FNDA:1,_ZN5Catch21getAllTestCasesSortedERKNS_7IConfigE
FNDA:0,_ZN5Catch8Matchers8ContainsERKNSt7__cxx1112basic_stringIcSt11char_traitsIcESaIcEEENS_13CaseSensitive6ChoiceE
FNDA:0,_ZNK5Catch5clara6detail3Opt8validateEv
FNDA:0,_ZN5Catch22CumulativeReporterBaseINS_13JunitReporterEE8skipTestERKNS_12TestCaseInfoE
FNDA:0,_ZNK5Catch5clara6detail8BoundRef6isFlagEv
FNDA:0,_ZN5Catch13JunitReporter13testCaseEndedERKNS_13TestCaseStatsE
FNDA:0,_ZN5Catch14TestSpecParser13addTagPatternEv
FNDA:0,_ZNK5Catch5clara8TextFlow6Column8iterator10isBoundaryEm
FNDA:1,_ZN5Catch10RunContextD2Ev
FNDA:0,_ZN5Catch21StreamingReporterBaseINS_21TestEventListenerBaseEE15sectionStartingERKNS_11SectionInfoE
FNDA:0,_ZN5Catch9MatchExprINSt7__cxx1112basic_stringIcSt11char_traitsIcESaIcEEERKNS_8Matchers4Impl11MatcherBaseIS6_EEEC2ERKS6_SC_RKNS_9StringRefE
FNDA:0,_ZN5Catch22CumulativeReporterBaseINS_13JunitReporterEE4NodeINS_12TestRunStatsENS3_INS_14TestGroupStatsENS3_INS_13TestCaseStatsENS2_11SectionNodeEEEEEED2Ev
FNDA:0,_ZN5Catch12_GLOBAL__N_111fileNameTagERKSt6vectorINSt7__cxx1112basic_stringIcSt11char_traitsIcESaIcEEESaIS7_EE
FNDA:0,_ZN5Catch7AutoRegD0Ev
FNDA:2,_ZN5Catch16TestCaseTracking14TrackerContext14currentTrackerEv
FNDA:0,_ZN5Catch13JunitReporter15writeAssertionsERKNS_22CumulativeReporterBaseIS0_E11SectionNodeE
FNDA:1,_ZN5Catch7Session3runIcEEiiPKPKT_
FNDA:0,_ZNK5Catch12TestCaseInfo12tagsAsStringB5cxx11Ev
FNDA:0,_ZN5Catch12TestRunStatsC2ERKS0_
FNDA:0,_ZZN5Catch21makeCommandLineParserERNS_10ConfigDataEENKUlbE9_clEb
FNDA:0,_ZN5Catch9XmlWriter13ScopedElement9writeTextERKNSt7__cxx1112basic_stringIcSt11char_traitsIcESaIcEEENS_13XmlFormattingE
FNDA:1,_ZNK5Catch5clara6detail20ComposableParserImplINS1_7ExeNameEEorINS1_4HelpEEENS1_6ParserERKT_
FNDA:1,_ZN5Catch16getResultCaptureEv
FNDA:0,_ZN5Catch22CumulativeReporterBaseINS_13JunitReporterEE11SectionNodeD0Ev
FNDA:1,_ZN5Catch13TestCaseStatsD2Ev
FNDA:0,_ZN5Catch20ReusableStringStreamlsIA9_cEERS0_RKT_
FNDA:0,_ZN5Catch13TestCaseStatsD0Ev
FNDA:0,_ZN5Catch20ReusableStringStreamlsIA36_cEERS0_RKT_
FNDA:1,_ZN5Catch14TestGroupStatsD2Ev
FNDA:0,_ZN5Catch11StringMakerIyvE7convertB5cxx11Ey
FNDA:1,_ZN5Catch5clara6detail11TokenStream10loadBufferEv
FNDA:0,_ZN5Catch6Detail12_GLOBAL__N_113StreamBufImplINS1_17OutputDebugWriterELm256EED2Ev
FNDA:1,_ZN5Catch21StreamingReporterBaseINS_15ConsoleReporterEED2Ev
FNDA:1,_ZN5Catch21StreamingReporterBaseINS_15ConsoleReporterEE15testRunStartingERKNS_11TestRunInfoE
FNDA:0,_ZN5Catch16RedirectedStreamC2ERSoS1_
FNDA:0,_ZN5Catch13JunitReporterD0Ev
FNDA:0,_ZN5Catch5clara8TextFlow6Column5widthEm
FNDA:0,_ZN5Catch12_GLOBAL__N_116AssertionPrinter18printExpressionWasEv
FNDA:0,_ZNK5Catch5clara6detail13BoundValueRefISt6vectorINSt7__cxx1112basic_stringIcSt11char_traitsIcESaIcEEESaIS9_EEE11isContainerEv
FNDA:1,_ZN5Catch14IResultCaptureD2Ev
FNDA:0,_ZN5Catch14AssertionStatsD0Ev
FNDA:0,_ZN5Catch9SingletonINS_13StringStreamsES1_S1_E10getMutableEv
FNDA:8,_ZN5Catch12_GLOBAL__N_115PosixColourImpl3useENS_6Colour4CodeE
FNDA:0,_ZN5Catch5clara6detail11BasicResultIvE10logicErrorERKNSt7__cxx1112basic_stringIcSt11char_traitsIcESaIcEEE
FNDA:0,_ZN5Catch11StringMakerINS_6Detail6ApproxEvE7convertB5cxx11ERKS2_
FNDA:0,_ZNK5Catch6OptionImE7valueOrERKm
FNDA:0,_ZN5Catch22CumulativeReporterBaseINS_13JunitReporterEE4NodeINS_13TestCaseStatsENS2_11SectionNodeEED0Ev
FNDA:0,_ZNK5Catch10RunContext13getLastResultEv
FNDA:1,_ZN5Catch12_GLOBAL__N_19TestGroup7executeEv
FNDA:10,_ZN5Catch9SingletonINS_12_GLOBAL__N_111RegistryHubENS_12IRegistryHubENS_19IMutableRegistryHubEE11getInternalEv
FNDA:0,_ZN5Catch8literalsli2_aEe
FNDA:1,_ZN5Catch17IReporterRegistryD2Ev
FNDA:1,_ZN5Catch16AssertionHandlerD2Ev
FNDA:0,_ZN5Catch8Matchers8Floating16WithinAbsMatcherC2Edd
FNDA:0,_ZNK5Catch15AssertionResult10getMessageB5cxx11Ev
FNDA:1,_ZN5Catch26FatalConditionHandlerGuardC2EPNS_21FatalConditionHandlerE
FNDA:0,_ZN5Catch7IStreamD0Ev
FNDA:0,_ZN5Catch20ReusableStringStreamlsIA13_cEERS0_RKT_
FNDA:0,_ZNK5Catch15AssertionResult13hasExpressionEv
FNDA:0,_ZNK5Catch21StreamingReporterBaseINS_11XmlReporterEE14getPreferencesEv
FNDA:0,_ZN5Catch5clara6detail12BoundFlagRef7setFlagEb
FNDA:0,_ZN5Catch9XmlWriter13ScopedElementC2EOS1_
FNDA:0,_ZNK5Catch12_GLOBAL__N_116AssertionPrinter15printResultTypeENS_6Colour4CodeERKNSt7__cxx1112basic_stringIcSt11char_traitsIcESaIcEEE
FNDA:0,_ZN5Catch11SimplePcg32C2Ej
FNDA:1,_ZN5CatchL29restorePreviousSignalHandlersEv
FNDA:0,_ZN5Catch20ReusableStringStreamlsINS_9StringRefEEERS0_RKT_
FNDA:0,_ZN5Catch8TestSpec11NamePatternC2ERKNSt7__cxx1112basic_stringIcSt11char_traitsIcESaIcEEES9_
FNDA:1,_ZNK5Catch6TotalsmiERKS0_
FNDA:1,_ZN5Catch17ReporterRegistrarINS_11XmlReporterEEC2ERKNSt7__cxx1112basic_stringIcSt11char_traitsIcESaIcEEE
FNDA:1,_ZN5Catch15ConsoleReporter12testRunEndedERKNS_12TestRunStatsE
FNDA:0,_ZN5Catch5clara6detail11BoundLambdaIZNS_21makeCommandLineParserERNS_10ConfigDataEEUlRKNSt7__cxx1112basic_stringIcSt11char_traitsIcESaIcEEEE2_E8setValueESC_
FNDA:0,_ZNK5Catch6Config14getProcessNameB5cxx11Ev
FNDA:0,_ZN5Catch11XmlReporter14testGroupEndedERKNS_14TestGroupStatsE
FNDA:0,_ZN5Catch12_GLOBAL__N_19nextafterEdd
FNDA:1,_ZN5Catch14TestSpecParser9addFilterEv
FNDA:0,_ZN5Catch12_GLOBAL__N_112shouldIndentENS_13XmlFormattingE
FNDA:1,_ZN5Catch5clara6detail13ParserRefImplINS1_3OptEEC2IZNS_21makeCommandLineParserERNS_10ConfigDataEEUlRKNSt7__cxx1112basic_stringIcSt11char_traitsIcESaIcEEEE1_EERKT_SF_
FNDA:0,_ZN5Catch10RunContext34handleUnexpectedExceptionNotThrownERKNS_13AssertionInfoERNS_17AssertionReactionE
FNDA:1,_ZN5Catch16TagAliasRegistryD2Ev
FNDA:0,_ZN5Catch11StringMakerIlvE7convertB5cxx11El
FNDA:0,_ZN5Catch20ReusableStringStreamlsIA5_cEERS0_RKT_
FNDA:0,_ZN5Catch10RunContext13handleMessageERKNS_13AssertionInfoENS_9ResultWas6OfTypeERKNS_9StringRefERNS_17AssertionReactionE
FNDA:1,_ZN5Catch5clara6detail7ExeName3setERKNSt7__cxx1112basic_stringIcSt11char_traitsIcESaIcEEE
FNDA:0,_ZN5Catch12_GLOBAL__N_120applyFilenamesAsTagsERKNS_7IConfigE
FNDA:1,_ZN5Catch6OptionImED2Ev
FNDA:0,_ZN5Catch5clara6detail12invokeLambdaINSt7__cxx1112basic_stringIcSt11char_traitsIcESaIcEEEZNS_21makeCommandLineParserERNS_10ConfigDataEEUlRKS8_E4_EENS1_11BasicResultINS1_15ParseResultTypeEEERKT0_SC_
FNDA:1,_ZN5Catch12makeTestCaseEPNS_12ITestInvokerERKNSt7__cxx1112basic_stringIcSt11char_traitsIcESaIcEEERKNS_11NameAndTagsERKNS_14SourceLineInfoE
FNDA:0,_ZN5Catch14TestSpecParser16addCharToPatternEc
FNDA:0,_ZN5Catch21TestEventListenerBase14assertionEndedERKNS_14AssertionStatsE
FNDA:0,_ZZN5Catch21makeCommandLineParserERNS_10ConfigDataEENKUlRKNSt7__cxx1112basic_stringIcSt11char_traitsIcESaIcEEEE1_clES9_
FNDA:0,_ZN5Catch17ListeningReporter14assertionEndedERKNS_14AssertionStatsE
FNDA:1,_ZN5Catch11isFalseTestEi
FNDA:0,_ZNK5Catch16TestCaseTracking11TrackerBase18isGeneratorTrackerEv
FNDA:0,_ZNK5Catch12_GLOBAL__N_116AssertionPrinter10printIssueERKNSt7__cxx1112basic_stringIcSt11char_traitsIcESaIcEEE
FNDA:0,_ZN5Catch5clara6detail13LambdaInvokerINS1_11BasicResultINS1_15ParseResultTypeEEEE6invokeIZNS_21makeCommandLineParserERNS_10ConfigDataEEUlRKNSt7__cxx1112basic_stringIcSt11char_traitsIcESaIcEEEE0_SF_EES5_RKT_RKT0_
FNDA:0,_ZN5Catch13SummaryColumnC2ENSt7__cxx1112basic_stringIcSt11char_traitsIcESaIcEEENS_6Colour4CodeE
FNDA:0,_ZN5Catch8Matchers9WithinRelEd
FNDA:1,_ZN5Catch5clara6detail15BoundFlagLambdaIZNS1_4HelpC4ERbEUlbE_EC2ERKS5_
FNDA:0,_ZN5Catch12SectionStatsC2ERKS0_
FNDA:0,_ZN5Catch21StreamingReporterBaseINS_15ConsoleReporterEED0Ev
FNDA:0,_ZN5Catch22CumulativeReporterBaseINS_13JunitReporterEED2Ev
FNDA:1,_ZN5Catch12LeakDetectorC2Ev
FNDA:0,_ZN5Catch12_GLOBAL__N_113hexEscapeCharERSoh
FNDA:0,_ZNK5Catch17ListeningReporter14getPreferencesEv
FNDA:0,_ZN5Catch5clara6detail12invokeLambdaINSt7__cxx1112basic_stringIcSt11char_traitsIcESaIcEEEZNS_21makeCommandLineParserERNS_10ConfigDataEEUlRKS8_E5_EENS1_11BasicResultINS1_15ParseResultTypeEEERKT0_SC_
FNDA:0,_ZN5Catch7SessionD0Ev
FNDA:0,_ZN5Catch5clara6detail8BoundRefD0Ev
FNDA:0,_ZN5Catch6Detail6ApproxC2IevEERKT_
FNDA:0,_ZN5Catch6OptionINS_15AssertionResultEEaSERKS1_
FNDA:0,_ZN5Catch15CompactReporter14assertionEndedERKNS_14AssertionStatsE
FNDA:1,_ZZN5Catch15ConsoleReporterC4ERKNS_14ReporterConfigEENKUlvE_clEv
FNDA:0,_ZN12_GLOBAL__N_112passedStringEv
FNDA:0,_ZN5Catch5clara8TextFlow16isBreakableAfterEc
FNDA:0,_ZN5Catch19writeToDebugConsoleERKNSt7__cxx1112basic_stringIcSt11char_traitsIcESaIcEEE
FNDA:0,_ZNK5Catch6Detail12_GLOBAL__N_114DebugOutStream6streamEv
FNDA:1,_ZN5Catch5clara6detail11TokenStreamC2EN9__gnu_cxx17__normal_iteratorIPKNSt7__cxx1112basic_stringIcSt11char_traitsIcESaIcEEESt6vectorISA_SaISA_EEEESG_
FNDA:1,_ZNK5Catch5clara6detail15ResultValueBaseINS1_10ParseStateEE5valueEv
FNDA:0,_ZN5CatchneERKNS_11SimplePcg32ES2_
FNDA:0,_ZN5Catch14AssertionStatsD2Ev
FNDA:1,_ZN5Catch11SectionInfoC2ERKNS_14SourceLineInfoERKNSt7__cxx1112basic_stringIcSt11char_traitsIcESaIcEEE
FNDA:0,_ZN5Catch11XmlReporter16testCaseStartingERKNS_12TestCaseInfoE
FNDA:1,_ZNK5Catch8TestSpec15matchesByFilterERKSt6vectorINS_8TestCaseESaIS2_EERKNS_7IConfigE
FNDA:1,_ZN5Catch5clara6detail13ParserRefImplINS1_3OptEEC2IZNS_21makeCommandLineParserERNS_10ConfigDataEEUlRKNSt7__cxx1112basic_stringIcSt11char_traitsIcESaIcEEEE6_EERKT_SF_
FNDA:0,_ZN5Catch22RegistrarForTagAliasesC2EPKcS2_RKNS_14SourceLineInfoE
FNDA:0,_ZN5Catch12_GLOBAL__N_113shouldNewlineENS_13XmlFormattingE
FNDA:0,_ZN5Catch9XmlWriter13ScopedElement14writeAttributeIbEERS1_RKNSt7__cxx1112basic_stringIcSt11char_traitsIcESaIcEEERKT_
FNDA:0,_ZN5Catch20ReusableStringStreamlsINS_14LazyExpressionEEERS0_RKT_
FNDA:1,_ZNK5Catch9StringRef5beginEv
FNDA:0,_ZN5Catch13ScopedMessageC2ERKNS_14MessageBuilderE
FNDA:0,_ZNK5Catch5clara6detail15ResultValueBaseINS1_15ParseResultTypeEE5valueEv
FNDA:0,_ZN5Catch16TestCaseTracking11TrackerBase6parentEv
FNDA:0,_ZNK5Catch5clara6detail11BasicResultINS1_10ParseStateEE4typeEv
FNDA:1,_ZNK5Catch20ITransientExpression9getResultEv
FNDA:0,_ZN5Catch14TestSpecParser7endModeEv
FNDA:0,_ZNK5Catch6Config14getTestsOrTagsB5cxx11Ev
FNDA:0,_ZNK5Catch6OptionINS_15AssertionResultEEdeEv
FNDA:0,_ZN5Catch20ReusableStringStreamlsIA26_cEERS0_RKT_
FNDA:0,_ZN5Catch7rngSeedEv
FNDA:0,_ZNK5Catch16TestCaseTracking11TrackerBase11hasChildrenEv
FNDA:0,_ZNK5Catch21StreamingReporterBaseINS_21TestEventListenerBaseEE14getPreferencesEv
FNDA:0,_ZN5Catch13JunitReporter14getDescriptionB5cxx11Ev
FNDA:0,_ZZN5Catch21makeCommandLineParserERNS_10ConfigDataEENKUlRKNSt7__cxx1112basic_stringIcSt11char_traitsIcESaIcEEEE3_clES9_
FNDA:0,_ZN5Catch6Detail12_GLOBAL__N_113StreamBufImplINS1_17OutputDebugWriterELm256EEC2Ev
FNDA:4,_ZN5Catch14SourceLineInfoC2EPKcm
FNDA:1,_ZN5Catch10RunContext10handleExprERKNS_13AssertionInfoERKNS_20ITransientExpressionERNS_17AssertionReactionE
FNDA:0,_ZN5Catch27ExceptionTranslatorRegistry18registerTranslatorEPKNS_20IExceptionTranslatorE
FNDA:0,_ZN5Catch13StringStreams7releaseEm
FNDA:0,_ZN5Catch6Detail6ApproxC2Ed
FNDA:0,_ZN5Catch20ReusableStringStreamlsIA31_cEERS0_RKT_
FNDA:0,_ZN5Catch16TestCaseTracking8ITrackerD0Ev
FNDA:0,_ZN5Catch20ReusableStringStreamlsIA16_cEERS0_RKT_
FNDA:0,_ZN5Catch6Detail12_GLOBAL__N_114DebugOutStreamC2Ev
FNDA:0,_ZN5Catch5clara6detail15ResultValueBaseINS1_15ParseResultTypeEEC2ENS1_10ResultBase4TypeE
FNDA:6,_ZN5Catch9StringRefC2EPKcm
FNDA:0,_ZNK5Catch8Matchers9StdString11CasedString21caseSensitivitySuffixB5cxx11Ev
FNDA:1,_ZN5Catch21FatalConditionHandler9disengageEv
FNDA:0,_ZN5Catch6Detail10parseEnumsENS_9StringRefE
FNDA:1,_ZN5Catch12TestRunStatsD2Ev
FNDA:2,_ZN5Catch5clara6detail3OptC2IjEERT_RKNSt7__cxx1112basic_stringIcSt11char_traitsIcESaIcEEE
FNDA:1,_ZN5Catch5clara6detail3OptC2IZNS_21makeCommandLineParserERNS_10ConfigDataEEUlRKNSt7__cxx1112basic_stringIcSt11char_traitsIcESaIcEEEE0_EERKT_SD_
FNDA:0,_ZN5Catch20ReusableStringStreamlsINS_14SourceLineInfoEEERS0_RKT_
FNDA:0,_ZNK5Catch5clara6detail11BasicResultINS1_15ParseResultTypeEEcvbEv
FNDA:0,_ZNK5Catch5Timer22getElapsedMillisecondsEv
FNDA:0,_ZN5Catch5clara6detail13LambdaInvokerIvE6invokeIZNS_21makeCommandLineParserERNS_10ConfigDataEEUlbE9_bEENS1_11BasicResultINS1_15ParseResultTypeEEERKT_RKT0_
FNDA:0,_ZN5Catch11SimplePcg32C2Ev
FNDA:0,_ZN5Catch10RunContext33handleUnexpectedInflightExceptionERKNS_13AssertionInfoERKNSt7__cxx1112basic_stringIcSt11char_traitsIcESaIcEEERNS_17AssertionReactionE
FNDA:1,_ZN5Catch5clara6detail3OptC2IZNS_21makeCommandLineParserERNS_10ConfigDataEEUlRKNSt7__cxx1112basic_stringIcSt11char_traitsIcESaIcEEEE4_EERKT_SD_
FNDA:0,_ZN5Catch21StreamingReporterBaseINS_15CompactReporterEE13testCaseEndedERKNS_13TestCaseStatsE
FNDA:0,_ZN5Catch21TestEventListenerBase17assertionStartingERKNS_13AssertionInfoE
FNDA:0,_ZN5Catch12_GLOBAL__N_112NoColourImpl3useENS_6Colour4CodeE
FNDA:0,_ZN5Catch20ReusableStringStreamlsIA40_cEERS0_RKT_
FNDA:0,_ZN5Catch5clara6detail13LambdaInvokerINS1_11BasicResultINS1_15ParseResultTypeEEEE6invokeIZNS_21makeCommandLineParserERNS_10ConfigDataEEUlRKNSt7__cxx1112basic_stringIcSt11char_traitsIcESaIcEEEE6_SF_EES5_RKT_RKT0_
FNDA:0,_ZZN5Catch21makeCommandLineParserERNS_10ConfigDataEENKUlbE7_clEb
FNDA:0,_ZN5Catch22CumulativeReporterBaseINS_13JunitReporterEE4NodeINS_12TestRunStatsENS3_INS_14TestGroupStatsENS3_INS_13TestCaseStatsENS2_11SectionNodeEEEEEEC2ERKS4_
FNDA:0,_ZN5Catch6Detail6Approx9setMarginEd
FNDA:0,_ZN5Catch21StreamingReporterBaseINS_21TestEventListenerBaseEE13testCaseEndedERKNS_13TestCaseStatsE
FNDA:2,_ZN5Catch7seedRngERKNS_7IConfigE
FNDA:0,_ZN5Catch12_GLOBAL__N_116marginComparisonEddd
FNDA:0,_ZN5Catch24translateActiveExceptionB5cxx11Ev
FNDA:0,_ZN5Catch20ReusableStringStreamlsIA4_cEERS0_RKT_
FNDA:0,_ZN5Catch22CumulativeReporterBaseINS_13JunitReporterEE4NodeINS_13TestCaseStatsENS2_11SectionNodeEED2Ev
FNDA:0,_ZNK5Catch5clara6detail6Parser14getHelpColumnsEv
FNDA:0,_ZN5Catch8Matchers7MessageERKNSt7__cxx1112basic_stringIcSt11char_traitsIcESaIcEEE
FNDA:0,_ZZN5Catch21makeCommandLineParserERNS_10ConfigDataEENKUlRKNSt7__cxx1112basic_stringIcSt11char_traitsIcESaIcEEEE0_clES9_
FNDA:1,_ZN5Catch15ConsoleReporter13testCaseEndedERKNS_13TestCaseStatsE
FNDA:0,_ZN5Catch20ReusableStringStream3getEv
FNDA:1,_ZN5Catch16TestCaseTracking11TrackerBase12moveToParentEv
FNDA:0,_ZN5Catch22CumulativeReporterBaseINS_13JunitReporterEE4NodeINS_13TestCaseStatsENS2_11SectionNodeEEC2ERKS4_
FNDA:1,_ZN5Catch5clara6detail13ParserRefImplINS1_3OptEE8optionalEv
FNDA:0,_ZNK5Catch8TestSpec6Filter7matchesERKNS_12TestCaseInfoE
FNDA:0,_ZN5Catch9XmlWriter15ensureTagClosedEv
FNDA:0,_ZNK5Catch10Generators16GeneratorTracker12getGeneratorEv
FNDA:0,_ZNK5Catch5clara8TextFlow6Column8iteratoreqERKS3_
FNDA:3,_ZN5Catch12_GLOBAL__N_19makeRatioEmm
FNDA:4,_ZNK5Catch6Config10abortAfterEv
FNDA:1,_ZN5Catch7Context16setResultCaptureEPNS_14IResultCaptureE
FNDA:1,_ZN5Catch5clara6detail3OptC2IZNS_21makeCommandLineParserERNS_10ConfigDataEEUlRKNSt7__cxx1112basic_stringIcSt11char_traitsIcESaIcEEEE5_EERKT_SD_
FNDA:0,_ZN5Catch12ratio_stringISt5ratioILl1ELl1000000000000000EEE6symbolB5cxx11Ev
FNDA:0,_ZN5Catch11StringMakerIDnvE7convertB5cxx11EDn
FNDA:0,_ZN5Catch16RedirectedStdOutC2Ev
FNDA:2,_ZN5Catch5clara6detail3OptC2INSt7__cxx1112basic_stringIcSt11char_traitsIcESaIcEEEEERT_RKS9_
FNDA:0,_ZNK5Catch5clara8TextFlow7Columns8iteratorneERKS3_
FNDA:0,_ZN5Catch11MessageInfoC2ERKNS_9StringRefERKNS_14SourceLineInfoENS_9ResultWas6OfTypeE
FNDA:0,_ZNK5Catch9MatchExprINSt7__cxx1112basic_stringIcSt11char_traitsIcESaIcEEERKNS_8Matchers4Impl11MatcherBaseIS6_EEE29streamReconstructedExpressionERSo
FNDA:3,_ZN5Catch12TablePrinter5closeEv
FNDA:0,_ZN5Catch21StreamingReporterBaseINS_15CompactReporterEE15testRunStartingERKNS_11TestRunInfoE
FNDA:0,_ZNK5Catch5clara6detail10ParserBase8validateEv
FNDA:0,_ZN5Catch9matchTestERKNS_8TestCaseERKNS_8TestSpecERKNS_7IConfigE
FNDA:0,_ZN5Catch10Generators16GeneratorTrackerC2ERKNS_16TestCaseTracking15NameAndLocationERNS2_14TrackerContextEPNS2_8ITrackerE
FNDA:0,_ZN5Catch16RedirectedStdErrC2Ev
FNDA:1,_ZNK5Catch16TestCaseTracking14TrackerContext14completedCycleEv
FNDA:1,_ZN5Catch16AssertionHandlerC2ERKNS_9StringRefERKNS_14SourceLineInfoES1_NS_17ResultDisposition5FlagsE
FNDA:1,_ZN5Catch6OptionINS_12TestCaseInfoEEaSERKS1_
FNDA:1,_ZN5Catch15IMutableContextD2Ev
FNDA:1,_ZN5Catch21FatalConditionHandler18disengage_platformEv
FNDA:1,_ZN5Catch12SectionStatsC2ERKNS_11SectionInfoERKNS_6CountsEdb
FNDA:0,_ZN5Catch14LazyExpressionC2Eb
FNDA:2,_ZN5Catch5clara6detail13ParserRefImplINS1_3OptEEC2INSt7__cxx1112basic_stringIcSt11char_traitsIcESaIcEEEEERT_RKSB_
FNDA:0,_ZNK5Catch6Detail6Approx8toStringB5cxx11Ev
FNDA:0,_ZN5Catch10RunContext17sectionEndedEarlyERKNS_14SectionEndInfoE
FNDA:1,_ZN5Catch12_GLOBAL__N_121enforceNotReservedTagERKNSt7__cxx1112basic_stringIcSt11char_traitsIcESaIcEEERKNS_14SourceLineInfoE
FNDA:0,_ZZN5Catch21makeCommandLineParserERNS_10ConfigDataEENKUlRKNSt7__cxx1112basic_stringIcSt11char_traitsIcESaIcEEEE4_clES9_
FNDA:0,_ZNK5Catch5clara6detail11BasicResultIvE12errorMessageB5cxx11Ev
FNDA:0,_ZN5Catch20ReusableStringStreamlsISt5_SetwEERS0_RKT_
FNDA:2,_ZN5Catch5clara6detail13BoundValueRefIjEC2ERj
FNDA:0,_ZNK5Catch16TagAliasRegistry13expandAliasesERKNSt7__cxx1112basic_stringIcSt11char_traitsIcESaIcEEE
FNDA:0,_ZNK5Catch6Detail6ApproxngEv
FNDA:0,_ZN5Catch9XmlWriter14writeAttributeIPKcEERS0_RKNSt7__cxx1112basic_stringIcSt11char_traitsIcESaIcEEERKT_
FNDA:0,_ZN5Catch5clara6detail11BasicResultINS1_10ParseStateEE12runtimeErrorERKNSt7__cxx1112basic_stringIcSt11char_traitsIcESaIcEEE
FNDA:1,_ZN5Catch26IMutableEnumValuesRegistryD2Ev
FNDA:0,_ZNK5Catch5clara8TextFlow6Column5beginEv
FNDA:0,_ZN5Catch11StringMakerIivE7convertB5cxx11Ei
FNDA:0,_ZNK5Catch17ReporterRegistrarINS_13JunitReporterEE15ReporterFactory6createERKNS_14ReporterConfigE
FNDA:0,_ZN5Catch12SectionStatsD0Ev
FNDA:0,_ZN5Catch13StringStreams3addEv
FNDA:4,_ZN5Catch6ColourD2Ev
FNDA:0,_ZNK5Catch12_GLOBAL__N_110TestHasherclERKNS_8TestCaseE
FNDA:1,_ZN5Catch15ConsoleReporter18printTotalsDividerERKNS_6TotalsE
FNDA:0,_ZNK5Catch16TestCaseTracking8ITracker15nameAndLocationEv
FNDA:1,_ZN5Catch5clara6detail3OptC2IZNS_21makeCommandLineParserERNS_10ConfigDataEEUlbE9_EERKT_RKNSt7__cxx1112basic_stringIcSt11char_traitsIcESaIcEEE
FNDA:0,_ZNK5Catch5clara6detail11BasicResultIvE9enforceOkEv
FNDA:0,_ZN5Catch21StreamingReporterBaseINS_21TestEventListenerBaseEE17testGroupStartingERKNS_9GroupInfoE
FNDA:0,_ZNK5Catch6Config18benchmarkResamplesEv
FNDA:0,_ZN5CatchlsERSoRKNS_14SourceLineInfoE
FNDA:2,_ZN5Catch4trimERKNSt7__cxx1112basic_stringIcSt11char_traitsIcESaIcEEE
FNDA:0,_ZN5Catch21StreamingReporterBaseINS_11XmlReporterEE8skipTestERKNS_12TestCaseInfoE
FNDA:0,_ZN5Catch22CumulativeReporterBaseINS_13JunitReporterEE4NodeINS_14TestGroupStatsENS3_INS_13TestCaseStatsENS2_11SectionNodeEEEED2Ev
FNDA:0,_ZNK5Catch8Matchers8Floating17WithinUlpsMatcher8describeB5cxx11Ev
FNDA:0,_ZN5Catch5clara6detail10ParserBaseD0Ev
FNDA:0,_ZN5Catch11XmlReporter17assertionStartingERKNS_13AssertionInfoE
FNDA:0,_ZN5Catch5clara6detail13BoundValueRefIlE8setValueERKNSt7__cxx1112basic_stringIcSt11char_traitsIcESaIcEEE
FNDA:0,_ZN5Catch20ReusableStringStreamlsIA60_cEERS0_RKT_
FNDA:1,_ZNK5Catch6Config9verbosityEv
FNDA:0,_ZN5Catch5clara6detail13LambdaInvokerINS1_11BasicResultINS1_15ParseResultTypeEEEE6invokeIZNS_21makeCommandLineParserERNS_10ConfigDataEEUlRKNSt7__cxx1112basic_stringIcSt11char_traitsIcESaIcEEEE3_SF_EES5_RKT_RKT0_
FNDA:0,_ZNK5Catch8Matchers9StdString12RegexMatcher8describeB5cxx11Ev
FNDA:0,_ZN5Catch5clara6detail11BoundLambdaIZNS_21makeCommandLineParserERNS_10ConfigDataEEUlRKNSt7__cxx1112basic_stringIcSt11char_traitsIcESaIcEEEE1_E8setValueESC_
FNDA:0,_ZN5Catch12_GLOBAL__N_17convertEf
FNDA:1,_ZN5Catch14TestSpecParserC2ERKNS_17ITagAliasRegistryE
FNDA:0,_ZN5Catch17ListeningReporter23getSupportedVerbositiesEv
FNDA:0,_ZN5Catch20ReusableStringStreamlsIA53_cEERS0_RKT_
FNDA:0,_ZN5Catch11StringMakerIPKcvE7convertB5cxx11ES2_
FNDA:0,_ZN5Catch21StreamingReporterBaseINS_15CompactReporterEE12testRunEndedERKNS_12TestRunStatsE
FNDA:0,_ZNK5Catch14TestSpecParser13isControlCharEc
FNDA:1,_ZN5Catch16TestCaseTracking11TrackerBase9findChildERKNS0_15NameAndLocationE
FNDA:0,_ZN5Catch13JunitReporter14assertionEndedERKNS_14AssertionStatsE
FNDA:0,_ZNK5Catch15AssertionResult20getExpressionInMacroB5cxx11Ev
FNDA:0,_ZNK5Catch9StringRef5c_strEv
FNDA:0,_ZN5Catch5clara6detaillsERSoRKNS1_6ParserE
FNDA:0,_ZN5Catch6OptionINS_12TestCaseInfoEEptEv
FNDA:0,_ZN5Catch20ReusableStringStreamlsIyEERS0_RKT_
FNDA:0,_ZN5Catch14TestSpecParser12saveLastModeEv
FNDA:0,_ZN5Catch5clara6detail13LambdaInvokerINS1_11BasicResultINS1_15ParseResultTypeEEEE6invokeIZNS_21makeCommandLineParserERNS_10ConfigDataEEUlRKNSt7__cxx1112basic_stringIcSt11char_traitsIcESaIcEEEE2_SF_EES5_RKT_RKT0_
FNDA:0,_ZNK5Catch12_GLOBAL__N_123ConsoleAssertionPrinter23printOriginalExpressionEv
FNDA:0,_ZN5Catch10RunContext13handleNonExprERKNS_13AssertionInfoENS_9ResultWas6OfTypeERNS_17AssertionReactionE
FNDA:0,_ZN12_GLOBAL__N_112failedStringEv
FNDA:3,_ZN5Catch5clara6detail10ResultBaseD2Ev
FNDA:0,_ZN5Catch16AssertionHandler13handleMessageENS_9ResultWas6OfTypeERKNS_9StringRefE
FNDA:1,_ZN5Catch5clara6detail15ResultValueBaseINS1_10ParseStateEEC2ERKS4_
FNDA:0,_ZN5Catch21StreamingReporterBaseINS_21TestEventListenerBaseEE12sectionEndedERKNS_12SectionStatsE
FNDA:0,_ZN5Catch11StringMakerINSt7__cxx1112basic_stringIcSt11char_traitsIcESaIcEEEvE7convertERKS6_
FNDA:0,_ZN5Catch8Matchers9Exception23ExceptionMessageMatcherC2ERKNSt7__cxx1112basic_stringIcSt11char_traitsIcESaIcEEE
FNDA:0,_ZN5Catch11XmlReporter12sectionEndedERKNS_12SectionStatsE
FNDA:0,_ZNK5Catch5clara8TextFlow6Column8iterator18addIndentAndSuffixERKNSt7__cxx1112basic_stringIcSt11char_traitsIcESaIcEEE
FNDA:1,_ZN5Catch5clara6detail3OptC2ISt6vectorINSt7__cxx1112basic_stringIcSt11char_traitsIcESaIcEEESaISA_EEEERT_RKSA_
FNDA:0,_ZN5Catch17ListeningReporter22reportInvalidArgumentsERKNSt7__cxx1112basic_stringIcSt11char_traitsIcESaIcEEE
FNDA:1,_ZN5Catch21TestInvokerAsFunctionC2EPFvvE
FNDA:0,_ZN5Catch6Detail8EnumInfoD2Ev
FNDA:1,_ZN5Catch6Detail12_GLOBAL__N_110CoutStreamC2Ev
FNDA:1,_ZN5Catch12TestCaseInfoC2ERKNSt7__cxx1112basic_stringIcSt11char_traitsIcESaIcEEES8_S8_RKSt6vectorIS6_SaIS6_EERKNS_14SourceLineInfoE
FNDA:0,_ZN5Catch12_GLOBAL__N_123estimateClockResolutionEv
FNDA:1,_ZN5Catch9StringRefC2ERKNSt7__cxx1112basic_stringIcSt11char_traitsIcESaIcEEE
FNDA:1,_ZNK5Catch5clara6detail11TokenStreamcvbEv
FNDA:0,_ZN5Catch16TagAliasRegistryD0Ev
FNDA:0,_ZN5Catch21StreamingReporterBaseINS_15CompactReporterEE17testGroupStartingERKNS_9GroupInfoE
FNDA:0,_ZN5Catch21StreamingReporterBaseINS_15ConsoleReporterEE8skipTestERKNS_12TestCaseInfoE
FNDA:0,_ZN5Catch6Detail6ApproxC2IyvEERKT_
FNDA:0,_ZN5Catch6Detail12_GLOBAL__N_114DebugOutStreamD2Ev
FNDA:0,_ZN5Catch21StreamingReporterBaseINS_15ConsoleReporterEE19noMatchingTestCasesERKNSt7__cxx1112basic_stringIcSt11char_traitsIcESaIcEEE
FNDA:0,_ZN5Catch5clara6detail15ResultValueBaseINS1_10ParseStateEED0Ev
FNDA:0,_ZN5Catch21StreamingReporterBaseINS_11XmlReporterEE14testGroupEndedERKNS_14TestGroupStatsE
FNDA:0,_ZNK5Catch8Matchers9StdString15ContainsMatcher5matchERKNSt7__cxx1112basic_stringIcSt11char_traitsIcESaIcEEE
FNDA:0,_ZNK5Catch9StringRef4dataEv
FNDA:0,_ZN5Catch20ReusableStringStreamlsIA32_cEERS0_RKT_
FNDA:0,_ZN5Catch17ListeningReporter17assertionStartingERKNS_13AssertionInfoE
FNDA:0,_ZN5Catch8endsWithERKNSt7__cxx1112basic_stringIcSt11char_traitsIcESaIcEEES7_
FNDA:0,_ZNK5Catch12_GLOBAL__N_123ConsoleAssertionPrinter15printResultTypeEv
FNDA:0,_ZNK5Catch18IStreamingReporter7isMultiEv
FNDA:0,_ZNK5Catch6Config14hasTestFiltersEv
FNDA:0,_ZNK5Catch12TestCaseInfo8okToFailEv
FNDA:0,_ZN5Catch10RunContext14sectionStartedERKNS_11SectionInfoERNS_6CountsE
FNDA:31,_ZN5Catch5clara6detail6ParseroRERKNS1_3OptE
FNDA:0,_ZN5Catch5clara6detail11BasicResultINS1_15ParseResultTypeEEC2ENS1_10ResultBase4TypeERKNSt7__cxx1112basic_stringIcSt11char_traitsIcESaIcEEE
FNDA:0,_ZN5Catch5clara8TextFlowlsERSoRKNS1_6ColumnE
FNDA:0,_ZN5Catch5clara6detail13BoundValueRefISt6vectorINSt7__cxx1112basic_stringIcSt11char_traitsIcESaIcEEESaIS9_EEE8setValueERKS9_
FNDA:0,_ZN5Catch12TestRunStatsD0Ev
FNDA:0,_ZN5Catch20ReusableStringStreamlsIFRSt8ios_baseS3_EEERS0_RKT_
FNDA:1,_ZN5Catch5clara6detail13ParserRefImplINS1_3OptEEC2IZNS_21makeCommandLineParserERNS_10ConfigDataEEUlRKNSt7__cxx1112basic_stringIcSt11char_traitsIcESaIcEEEE5_EERKT_SF_
FNDA:1,_ZN5Catch15ConsoleReporter12sectionEndedERKNS_12SectionStatsE
FNDA:5,_ZN5Catch21getMutableRegistryHubEv
FNDA:1,_ZN5Catch5clara6detail6ParseroRERKNS1_3ArgE
FNDA:0,_ZN5Catch11StringMakerIbvE7convertB5cxx11Eb
FNDA:0,_ZNK5Catch5clara6detail7ExeName4nameB5cxx11Ev
FNDA:1,_ZNK5Catch16TestCaseTracking14SectionTracker10isCompleteEv
FNDA:0,_ZN5Catch12_GLOBAL__N_111RegistryHub16registerTagAliasERKNSt7__cxx1112basic_stringIcSt11char_traitsIcESaIcEEES9_RKNS_14SourceLineInfoE
FNDA:0,_ZN5Catch21StreamingReporterBaseINS_11XmlReporterEE15sectionStartingERKNS_11SectionInfoE
FNDA:1,_ZNK5Catch6Config17listTestNamesOnlyEv
FNDA:1,_ZN5Catch5clara6detail3OptC2IZNS_21makeCommandLineParserERNS_10ConfigDataEEUlRKNSt7__cxx1112basic_stringIcSt11char_traitsIcESaIcEEEE1_EERKT_SD_
FNDA:0,_ZN5Catch10ISingletonD0Ev
FNDA:0,_ZN5Catch11SimplePcg32clEv
FNDA:0,_ZN5Catch14TestSpecParser12startNewModeENS0_4ModeE
FNDA:0,_ZN5Catch16TestCaseTracking14TrackerContext6endRunEv
FNDA:2,_ZN5Catch9pluraliseC2EmRKNSt7__cxx1112basic_stringIcSt11char_traitsIcESaIcEEE
FNDA:0,_ZN5Catch8Matchers9StdString17StringMatcherBaseC2ERKNSt7__cxx1112basic_stringIcSt11char_traitsIcESaIcEEERKNS1_11CasedStringE
FNDA:1,_ZN5Catch12_GLOBAL__N_119useColourOnPlatformEv
FNDA:0,_ZN5Catch10fpToStringIfEENSt7__cxx1112basic_stringIcSt11char_traitsIcESaIcEEET_i
FNDA:1,_ZNK5Catch12TestCaseInfo8isHiddenEv
FNDA:0,_ZN5Catch22CumulativeReporterBaseINS_13JunitReporterEE11SectionNodeC2ERKNS_12SectionStatsE
FNDA:1,_ZN5Catch21StreamingReporterBaseINS_15ConsoleReporterEE17testGroupStartingERKNS_9GroupInfoE
FNDA:0,_ZN5Catch14getLineOfCharsILc126EEEPKcv
FNDA:0,_ZN5Catch11StringMakerINS_14SourceLineInfoEvE7convertIS1_EENSt9enable_ifIXsrNS_6Detail18IsStreamInsertableIT_EE5valueENSt7__cxx1112basic_stringIcSt11char_traitsIcESaIcEEEE4typeERKS7_
FNDA:0,_ZNK5Catch15AssertionResult21hasExpandedExpressionEv
FNDA:0,_ZN5Catch5clara8TextFlow7Columns8iteratorC2ERKS2_NS3_6EndTagE
FNDA:2,_ZNK5Catch16TestCaseTracking14SectionTracker16isSectionTrackerEv
FNDA:0,_ZN5Catch8CapturerC2ENS_9StringRefERKNS_14SourceLineInfoENS_9ResultWas6OfTypeES1_
FNDA:0,_ZZZN5Catch10Generators16GeneratorTracker5closeEvENKUlvE_clEvENKUlSt10shared_ptrINS_16TestCaseTracking8ITrackerEEE_clES6_
FNDA:0,_ZN5Catch15ConsoleReporter15printOpenHeaderERKNSt7__cxx1112basic_stringIcSt11char_traitsIcESaIcEEE
FNDA:1,_ZN5Catch7IStreamD2Ev
FNDA:0,_ZNK5Catch27ExceptionTranslatorRegistry24translateActiveExceptionB5cxx11Ev
FNDA:0,_ZNK5Catch6Config19benchmarkWarmupTimeEv
FNDA:0,_ZN5Catch22CumulativeReporterBaseINS_13JunitReporterEE14assertionEndedERKNS_14AssertionStatsE
FNDA:0,_ZN5Catch5clara6detail11BasicResultINS1_15ParseResultTypeEE12runtimeErrorERKNSt7__cxx1112basic_stringIcSt11char_traitsIcESaIcEEE
FNDA:0,_ZN5Catch6Detail9stringifyIdEENSt7__cxx1112basic_stringIcSt11char_traitsIcESaIcEEERKT_
FNDA:2,_ZNK5Catch14ReporterConfig6streamEv
FNDA:0,_ZN5Catch15ConsoleReporter19printSummaryDividerEv
FNDA:1,_ZN5Catch16TestCaseTracking11TrackerBase4openEv
FNDA:2,_ZN5Catch16TestCaseTracking14SectionTrackerC2ERKNS0_15NameAndLocationERNS0_14TrackerContextEPNS0_8ITrackerE
FNDA:0,_ZNK5Catch15WildcardPattern7matchesERKNSt7__cxx1112basic_stringIcSt11char_traitsIcESaIcEEE
FNDA:0,_ZNK5Catch5clara6detail11TokenStreamdeEv
FNDA:0,_ZN5Catch12ratio_stringISt5ratioILl1ELl1000000000000000000EEE6symbolB5cxx11Ev
FNDA:1,_ZN5Catch5clara6detail13ParserRefImplINS1_3OptEEC2IZNS_21makeCommandLineParserERNS_10ConfigDataEEUliE8_EERKT_RKNSt7__cxx1112basic_stringIcSt11char_traitsIcESaIcEEE
FNDA:0,_ZN5Catch21StreamingReporterBaseINS_11XmlReporterEE12sectionEndedERKNS_12SectionStatsE
FNDA:0,_ZN5Catch11XmlReporter13testCaseEndedERKNS_13TestCaseStatsE
FNDA:0,_ZNK5Catch20ReusableStringStream3strB5cxx11Ev
FNDA:0,_ZN5Catch15WildcardPatternD2Ev
FNDA:0,_ZN5Catch6Detail9stringifyIjEENSt7__cxx1112basic_stringIcSt11char_traitsIcESaIcEEERKT_
FNDA:0,_ZN5Catch21StreamingReporterBaseINS_11XmlReporterEEC2ERKNS_14ReporterConfigE
FNDA:2,_ZNK5Catch6Config7rngSeedEv
FNDA:0,_ZN5Catch20ReusableStringStreamlsIA18_cEERS0_RKT_
FNDA:1,_ZN5Catch5clara6detail4ArgsC2EiPKPKc
FNDA:0,_ZN5Catch9XmlWriterC2ERSo
FNDA:1,_ZN5Catch12TablePrinterC2ERSoSt6vectorINS_12_GLOBAL__N_110ColumnInfoESaIS4_EE
FNDA:0,_ZN5Catch13JunitReporter13writeTestCaseERKNS_22CumulativeReporterBaseIS0_E4NodeINS_13TestCaseStatsENS2_11SectionNodeEEE
FNDA:0,_ZN5Catch20ReusableStringStreamlsIA66_cEERS0_RKT_
FNDA:0,_ZNK5Catch5clara6detail11BasicResultIvE4typeEv
FNDA:1,_ZN5Catch5clara6detail11BoundLambdaIZNS_21makeCommandLineParserERNS_10ConfigDataEEUlRKNSt7__cxx1112basic_stringIcSt11char_traitsIcESaIcEEEE4_EC2ERKSD_
FNDA:1,_ZN5Catch8LazyStatINS_11TestRunInfoEE5resetEv
FNDA:1,_ZN5Catch10RunContext14runCurrentTestERNSt7__cxx1112basic_stringIcSt11char_traitsIcESaIcEEES7_
FNDA:0,_ZN5Catch21StreamingReporterBaseINS_15CompactReporterEE8skipTestERKNS_12TestCaseInfoE
FNDA:1,_ZN5Catch17ReporterRegistrarINS_13JunitReporterEEC2ERKNSt7__cxx1112basic_stringIcSt11char_traitsIcESaIcEEE
FNDA:0,_ZN5Catch14TestSpecParser15processNoneCharEc
FNDA:0,_ZN5Catch8Matchers9StdString15ContainsMatcherC2ERKNS1_11CasedStringE
FNDA:1,_ZN5Catch10RunContextC2ERKSt10shared_ptrIKNS_7IConfigEEOSt10unique_ptrINS_18IStreamingReporterESt14default_deleteIS8_EE
FNDA:1,_ZN5Catch10RunContext17testGroupStartingERKNSt7__cxx1112basic_stringIcSt11char_traitsIcESaIcEEEmm
FNDA:0,_ZN5Catch21StreamingReporterBaseINS_15ConsoleReporterEE22reportInvalidArgumentsERKNSt7__cxx1112basic_stringIcSt11char_traitsIcESaIcEEE
FNDA:0,_ZNK5Catch16TestCaseTracking14SectionTracker11trimmedNameB5cxx11Ev
FNDA:1,_ZN5Catch5clara6detail11BoundLambdaIZNS_21makeCommandLineParserERNS_10ConfigDataEEUlbE9_EC2ERKS5_
FNDA:1,_ZN5Catch5clara6detail3OptC2IZNS_21makeCommandLineParserERNS_10ConfigDataEEUlRKNSt7__cxx1112basic_stringIcSt11char_traitsIcESaIcEEEE2_EERKT_SD_
FNDA:2,_ZN5Catch7Context9setConfigERKSt10shared_ptrIKNS_7IConfigEE
FNDA:1,_ZN5Catch7SessionD2Ev
FNDA:0,_ZN5Catch22CumulativeReporterBaseINS_13JunitReporterEE12sectionEndedERKNS_12SectionStatsE
FNDA:0,_ZN5Catch20ReusableStringStreamlsIA47_cEERS0_RKT_
FNDA:4,_ZN5Catch12_GLOBAL__N_111RegistryHub16registerReporterERKNSt7__cxx1112basic_stringIcSt11char_traitsIcESaIcEEERKSt10shared_ptrINS_16IReporterFactoryEE
FNDA:1,_ZN5Catch10RunContext24testForMissingAssertionsERNS_6CountsE
FNDA:0,_ZN5Catch12_GLOBAL__N_110TestHasherC2Em
FNDA:0,_ZN5Catch5clara6detail11TokenStreamppEv
FNDA:0,_ZZN5Catch21makeCommandLineParserERNS_10ConfigDataEENKUliE8_clEi
FNDA:0,_ZN5Catch6Detail6Approx10setEpsilonEd
FNDA:1,_ZNK5Catch17ReporterRegistrarINS_15ConsoleReporterEE15ReporterFactory6createERKNS_14ReporterConfigE
FNDA:0,_ZN5Catch20ReusableStringStreamlsIA22_cEERS0_RKT_
FNDA:0,_ZN5CatcheqERKNS_11SimplePcg32ES2_
FNDA:0,_ZN5Catch6Detail17rawMemoryToStringB5cxx11EPKvm
FNDA:1,_ZN5Catch5clara6detail13ParserRefImplINS1_3OptEEC2IZNS_21makeCommandLineParserERNS_10ConfigDataEEUlbE9_EERKT_RKNSt7__cxx1112basic_stringIcSt11char_traitsIcESaIcEEE
FNDA:1,_ZN5Catch12ITestInvokerD2Ev
FNDA:0,_ZN5Catch14IResultCaptureD0Ev
FNDA:1,_ZNK5Catch5Timer17getElapsedSecondsEv
FNDA:0,_ZN5Catch6ColouraSEOS0_
FNDA:0,_ZNK5Catch5clara6detail11BasicResultINS1_10ParseStateEE12errorMessageB5cxx11Ev
FNDA:0,_ZN5Catch5clara6detail11BoundLambdaIZNS_21makeCommandLineParserERNS_10ConfigDataEEUliE8_E8setValueERKNSt7__cxx1112basic_stringIcSt11char_traitsIcESaIcEEE
FNDA:1,_ZN5Catch5clara6detail11BoundLambdaIZNS_21makeCommandLineParserERNS_10ConfigDataEEUlRKNSt7__cxx1112basic_stringIcSt11char_traitsIcESaIcEEEE_EC2ERKSD_
FNDA:0,_ZN5Catch5clara8TextFlow6Column8iterator10calcLengthEv
FNDA:1,_ZN5Catch5clara6detail11BoundLambdaIZNS_21makeCommandLineParserERNS_10ConfigDataEEUlRKNSt7__cxx1112basic_stringIcSt11char_traitsIcESaIcEEEE0_EC2ERKSD_
FNDA:0,_ZN5Catch21StreamingReporterBaseINS_11XmlReporterEE12testRunEndedERKNS_12TestRunStatsE
FNDA:0,_ZNK5Catch21StreamingReporterBaseINS_15CompactReporterEE14getPreferencesEv
FNDA:10,_ZN5Catch17getCurrentContextEv
FNDA:0,_ZN5Catch15ConsoleReporter19noMatchingTestCasesERKNSt7__cxx1112basic_stringIcSt11char_traitsIcESaIcEEE
FNDA:0,_ZN5Catch20ReusableStringStreamlsIA57_cEERS0_RKT_
FNDA:1,_ZN5Catch12_GLOBAL__N_113isReservedTagERKNSt7__cxx1112basic_stringIcSt11char_traitsIcESaIcEEE
FNDA:1,_ZN5Catch7AutoRegD2Ev
FNDA:0,_ZN5Catch5clara6detail11convertIntoIiEENS1_11BasicResultINS1_15ParseResultTypeEEERKNSt7__cxx1112basic_stringIcSt11char_traitsIcESaIcEEERT_
FNDA:0,_ZN5Catch9XmlWriter13ScopedElementaSEOS1_
FNDA:0,_ZN5Catch12_GLOBAL__N_115almostEqualUlpsIfEEbT_S2_m
FNDA:0,_ZN5Catch17RedirectedStreamsD2Ev
FNDA:0,_ZN5Catch10Generators20GeneratorUntypedBaseD2Ev
FNDA:12,_ZN5Catch24getCurrentMutableContextEv
FNDA:0,_ZN5Catch10Generators16GeneratorTrackerD2Ev
FNDA:0,_ZZN5Catch12_GLOBAL__N_111fileNameTagERKSt6vectorINSt7__cxx1112basic_stringIcSt11char_traitsIcESaIcEEESaIS7_EEENKUlRKS7_E_clESD_
FNDA:0,_ZN5Catch12_GLOBAL__N_113trailingBytesEh
FNDA:0,_ZN5Catch5clara6detail12invokeLambdaIiZNS_21makeCommandLineParserERNS_10ConfigDataEEUliE8_EENS1_11BasicResultINS1_15ParseResultTypeEEERKT0_RKNSt7__cxx1112basic_stringIcSt11char_traitsIcESaIcEEE
FNDA:0,_ZNK5Catch6Config26warnAboutMissingAssertionsEv
FNDA:0,_ZN5Catch21StreamingReporterBaseINS_11XmlReporterEE15testRunStartingERKNS_11TestRunInfoE
FNDA:0,_ZN5Catch13JunitReporterD2Ev
FNDA:0,_ZN5Catch22CumulativeReporterBaseINS_13JunitReporterEED0Ev
FNDA:1,_ZN5Catch20ITransientExpressionD2Ev
FNDA:0,_ZN5Catch22CumulativeReporterBaseINS_13JunitReporterEE15sectionStartingERKNS_11SectionInfoE
FNDA:0,_ZN5Catch5clara6detail12invokeLambdaINSt7__cxx1112basic_stringIcSt11char_traitsIcESaIcEEEZNS_21makeCommandLineParserERNS_10ConfigDataEEUlRKS8_E3_EENS1_11BasicResultINS1_15ParseResultTypeEEERKT0_SC_
FNDA:0,_ZN5Catch4cerrEv
FNDA:0,_ZN5Catch15CompactReporter12testRunEndedERKNS_12TestRunStatsE
FNDA:5,_ZN5Catch14getRegistryHubEv
FNDA:0,_ZN5Catch14TestSpecParser16processOtherCharEc
FNDA:1,_ZN5Catch7ContextD0Ev
FNDA:3,_ZN5Catch12_GLOBAL__N_1L13getSingletonsEv
FNDA:0,_ZN5Catch5clara6detail11BoundLambdaIZNS_21makeCommandLineParserERNS_10ConfigDataEEUlRKNSt7__cxx1112basic_stringIcSt11char_traitsIcESaIcEEEE3_E8setValueESC_
FNDA:3,_ZNK5Catch6CountsmiERKS0_
FNDA:0,_ZN5Catch6Detail9stringifyIaEENSt7__cxx1112basic_stringIcSt11char_traitsIcESaIcEEERKT_
FNDA:0,_ZN5Catch8Matchers9WithinRelEdd
FNDA:0,_ZNK5Catch8TestSpec6Filter4nameB5cxx11Ev
FNDA:1,_ZN5Catch7IRunnerD2Ev
FNDA:0,_ZN5Catch6Detail9stringifyINSt7__cxx1112basic_stringIcSt11char_traitsIcESaIcEEEEES7_RKT_
FNDA:0,_ZNK5Catch12_GLOBAL__N_123ConsoleAssertionPrinter12printMessageEv
FNDA:0,_ZNK5Catch17ReporterRegistrarINS_11XmlReporterEE15ReporterFactory14getDescriptionB5cxx11Ev
FNDA:0,_ZN5Catch11XmlReporter15testRunStartingERKNS_11TestRunInfoE
FNDA:0,_ZN5Catch18IStreamingReporter22reportInvalidArgumentsERKNSt7__cxx1112basic_stringIcSt11char_traitsIcESaIcEEE
FNDA:0,_ZN5Catch6ColourC2EOS0_
FNDA:0,_ZN5Catch9XmlWriter16writeDeclarationEv
FNDA:0,_ZN5Catch13JunitReporter17testGroupStartingERKNS_9GroupInfoE
FNDA:1,_ZN5Catch17ITestCaseRegistryD2Ev
FNDA:1,_ZN5Catch15ConsoleReporterD2Ev
FNDA:1,_ZN5Catch16TestCaseTracking14TrackerContext8startRunEv
FNDA:0,_ZN5Catch15throw_exceptionISt13runtime_errorEEvRKT_
FNDA:0,_ZN5Catch15WildcardPatternC2ERKNSt7__cxx1112basic_stringIcSt11char_traitsIcESaIcEEENS_13CaseSensitive6ChoiceE
FNDA:0,_ZN5Catch23shouldContinueOnFailureEi
FNDA:0,_ZN5Catch14ReporterConfigC2ERKSt10shared_ptrIKNS_7IConfigEERSo
FNDA:0,_ZN5Catch8Matchers7MatchesERKNSt7__cxx1112basic_stringIcSt11char_traitsIcESaIcEEENS_13CaseSensitive6ChoiceE
FNDA:0,_ZN5Catch15ConsoleReporter18lazyPrintGroupInfoEv
FNDA:1,_ZN5Catch12_GLOBAL__N_112makeReporterERKSt10shared_ptrINS_6ConfigEE
FNDA:0,_ZNK5Catch5clara6detail11BasicResultIvEcvbEv
FNDA:0,_ZN5Catch9XmlWriter12startElementERKNSt7__cxx1112basic_stringIcSt11char_traitsIcESaIcEEENS_13XmlFormattingE
FNDA:0,_ZN5CatchL12handleSignalEi
FNDA:0,_ZN5Catch6Detail9stringifyINS_14SourceLineInfoEEENSt7__cxx1112basic_stringIcSt11char_traitsIcESaIcEEERKT_
FNDA:0,_ZN5Catch5clara6detail13LambdaInvokerINS1_11BasicResultINS1_15ParseResultTypeEEEE6invokeIZNS_21makeCommandLineParserERNS_10ConfigDataEEUlRKNSt7__cxx1112basic_stringIcSt11char_traitsIcESaIcEEEE5_SF_EES5_RKT_RKT0_
FNDA:0,_ZNK5Catch15AssertionResult9succeededEv
FNDA:0,_ZN5Catch11StringMakerIPwvE7convertB5cxx11ES1_
FNDA:1,_ZNK5Catch6Config8listTagsEv
FNDA:0,_ZN5Catch12IRegistryHubD0Ev
FNDA:1,_ZNK5Catch12_GLOBAL__N_111RegistryHub27getStartupExceptionRegistryEv
FNDA:0,_ZN5Catch12_GLOBAL__N_17convertEd
FNDA:0,_ZN5Catch16AssertionHandler34handleExceptionNotThrownAsExpectedEv
FNDA:0,_ZN5Catch7Session10configDataEv
FNDA:0,_ZNK5Catch8TestSpec10TagPattern7matchesERKNS_12TestCaseInfoE
FNDA:0,_ZN5Catch24handleExceptionMatchExprERNS_16AssertionHandlerERKNSt7__cxx1112basic_stringIcSt11char_traitsIcESaIcEEERKNS_9StringRefE
FNDA:0,_ZZN5Catch16TestCaseTracking11TrackerBase9findChildERKNS0_15NameAndLocationEENKUlRKSt10shared_ptrINS0_8ITrackerEEE_clES9_
FNDA:0,_ZN5Catch12_GLOBAL__N_112rotate_rightEjj
FNDA:1,_ZN5Catch5clara6detail13ParserRefImplINS1_3OptEEC2IZNS_21makeCommandLineParserERNS_10ConfigDataEEUlRKNSt7__cxx1112basic_stringIcSt11char_traitsIcESaIcEEEE4_EERKT_SF_
FNDA:11,_ZN5Catch5clara6detail12BoundFlagRefC2ERb
FNDA:1,_ZN5Catchli3_srEPKcm
FNDA:0,_ZN5Catch6Detail12_GLOBAL__N_117OutputDebugWriterclERKNSt7__cxx1112basic_stringIcSt11char_traitsIcESaIcEEE
FNDA:1,_ZNK5Catch6Config16getSectionsToRunB5cxx11Ev
FNDA:0,_ZN5Catch14splitStringRefENS_9StringRefEc
FNDA:0,_ZN5Catch11SimplePcg324seedEj
FNDA:1,_ZN5Catch6ConfigD2Ev
FNDA:1,_ZN5Catch21FatalConditionHandlerC2Ev
FNDA:0,_ZN5Catch5clara6detail11BasicResultIvEC2ENS1_10ResultBase4TypeERKNSt7__cxx1112basic_stringIcSt11char_traitsIcESaIcEEE
FNDA:0,_ZNK5Catch5clara8TextFlow6Column5widthEv
FNDA:0,_ZN5CatchlsERNS_12TablePrinterENS_12_GLOBAL__N_18RowBreakE
FNDA:1,_ZN5Catch12addSingletonEPNS_10ISingletonE
FNDA:0,_ZN5Catch28IExceptionTranslatorRegistryD0Ev
FNDA:9,_ZNK5Catch6Config6streamEv
FNDA:0,_ZN5Catch21StreamingReporterBaseINS_15CompactReporterEED2Ev
FNDA:0,_ZN5Catch17RedirectedStreamsC2ERNSt7__cxx1112basic_stringIcSt11char_traitsIcESaIcEEES7_
FNDA:1,_ZN5Catch5clara6detail11BasicResultINS1_10ParseStateEE2okIS3_EES4_RKT_
FNDA:0,_ZNK5Catch10Generators16GeneratorTracker18isGeneratorTrackerEv
FNDA:0,_ZN5Catch15CompactReporter17assertionStartingERKNS_13AssertionInfoE
FNDA:0,_ZNK5Catch16TagAliasRegistry4findERKNSt7__cxx1112basic_stringIcSt11char_traitsIcESaIcEEE
FNDA:0,_ZN5Catch9XmlWriter13ScopedElement14writeAttributeIjEERS1_RKNSt7__cxx1112basic_stringIcSt11char_traitsIcESaIcEEERKT_
FNDA:0,_ZN5Catch14AssertionStatsC2ERKS0_
FNDA:0,_ZNK5Catch6Config14showInvisiblesEv
FNDA:1,_ZNK5Catch5clara6detail6Parser5parseERKNSt7__cxx1112basic_stringIcSt11char_traitsIcESaIcEEERKNS1_11TokenStreamE
FNDA:1,_ZN5Catch5clara6detail3OptC2IlEERT_RKNSt7__cxx1112basic_stringIcSt11char_traitsIcESaIcEEE
FNDA:0,_ZZNK5Catch8TestSpec15matchesByFilterERKSt6vectorINS_8TestCaseESaIS2_EERKNS_7IConfigEENKUlRKNS0_6FilterEE_clESC_
FNDA:1,_ZN5Catch7toLowerERKNSt7__cxx1112basic_stringIcSt11char_traitsIcESaIcEEE
FNDA:1,_ZN5Catch27ExceptionTranslatorRegistryD2Ev
FNDA:0,_ZN5Catch18throw_domain_errorERKNSt7__cxx1112basic_stringIcSt11char_traitsIcESaIcEEE
FNDA:0,_ZN5CatchpLERNSt7__cxx1112basic_stringIcSt11char_traitsIcESaIcEEERKNS_9StringRefE
FNDA:1,_ZNK5Catch8TestSpec10hasFiltersEv
FNDA:0,_ZN5Catch20ReusableStringStreamlsINS_16TestCaseTracking11TrackerBase10CycleStateEEERS0_RKT_
FNDA:0,_ZNK5Catch15AssertionResult21getExpandedExpressionB5cxx11Ev
FNDA:0,_ZN5Catch19uncaught_exceptionsEv
FNDA:0,_ZN5Catch17ListeningReporter19noMatchingTestCasesERKNSt7__cxx1112basic_stringIcSt11char_traitsIcESaIcEEE
FNDA:0,_ZN5Catch21StreamingReporterBaseINS_11XmlReporterEE19noMatchingTestCasesERKNSt7__cxx1112basic_stringIcSt11char_traitsIcESaIcEEE
FNDA:0,_ZN5Catch15ConsoleReporter22reportInvalidArgumentsERKNSt7__cxx1112basic_stringIcSt11char_traitsIcESaIcEEE
FNDA:0,_ZN5Catch21StreamingReporterBaseINS_21TestEventListenerBaseEE12testRunEndedERKNS_12TestRunStatsE
FNDA:1,_ZN5Catch10RunContext15assertionPassedEv
FNDA:0,_ZN5Catch11XmlReporter12testRunEndedERKNS_12TestRunStatsE
FNDA:0,_ZN5Catch10Generators23acquireGeneratorTrackerENS_9StringRefERKNS_14SourceLineInfoE
FNDA:1,_ZNK5Catch16TestCaseTracking11TrackerBase10isCompleteEv
FNDA:0,_ZN5Catch15throw_exceptionISt11logic_errorEEvRKT_
FNDA:1,_ZNK5Catch16ReporterRegistry6createERKNSt7__cxx1112basic_stringIcSt11char_traitsIcESaIcEEERKSt10shared_ptrIKNS_7IConfigEE
FNDA:0,_ZN5Catch7Session13useConfigDataERKNS_10ConfigDataE
FNDA:0,_ZN5Catch21StreamingReporterBaseINS_21TestEventListenerBaseEE14testGroupEndedERKNS_14TestGroupStatsE
FNDA:0,_ZN5Catch17ITestCaseRegistryD0Ev
FNDA:1,_ZN5Catch21StreamingReporterBaseINS_15ConsoleReporterEE16testCaseStartingERKNS_12TestCaseInfoE
FNDA:1,_ZN5Catch12_GLOBAL__N_115PosixColourImpl8instanceEv
FNDA:0,_ZN5Catch13JunitReporter14writeAssertionERKNS_14AssertionStatsE
FNDA:1,_ZN5Catch6OptionINS_15AssertionResultEE5resetEv
FNDA:0,_ZN5Catch22CumulativeReporterBaseINS_13JunitReporterEE13BySectionInfoC2ERKNS_11SectionInfoE
FNDA:1,_ZNK5Catch6Config9listTestsEv
FNDA:5,_ZN5Catch9SingletonINS_12_GLOBAL__N_111RegistryHubENS_12IRegistryHubENS_19IMutableRegistryHubEE3getEv
FNDA:0,_ZN5Catch8listTagsERKNS_6ConfigE
FNDA:0,_ZN5Catch21StreamingReporterBaseINS_15CompactReporterEE15sectionStartingERKNS_11SectionInfoE
FNDA:2,_ZN5Catch31getCurrentNanosecondsSinceEpochEv
FNDA:1,_ZN5Catch28IExceptionTranslatorRegistryD2Ev
FNDA:0,_ZN5Catch5clara6detail12invokeLambdaINSt7__cxx1112basic_stringIcSt11char_traitsIcESaIcEEEZNS_21makeCommandLineParserERNS_10ConfigDataEEUlRKS8_E2_EENS1_11BasicResultINS1_15ParseResultTypeEEERKT0_SC_
FNDA:0,_ZNK5Catch8Matchers4Impl18MatcherUntypedBase8toStringB5cxx11Ev
FNDA:5,_ZN5Catch10startsWithERKNSt7__cxx1112basic_stringIcSt11char_traitsIcESaIcEEEc
FNDA:0,_ZN5Catch11StringMakerImvE7convertB5cxx11Em
FNDA:1,_ZN5Catch16TestCaseTracking14SectionTracker17addInitialFiltersERKSt6vectorINSt7__cxx1112basic_stringIcSt11char_traitsIcESaIcEEESaIS8_EE
FNDA:1,_ZN5Catch21FatalConditionHandlerD2Ev
FNDA:0,_ZNK5Catch15WildcardPattern15normaliseStringERKNSt7__cxx1112basic_stringIcSt11char_traitsIcESaIcEEE
FNDA:3,_ZN5Catch12_GLOBAL__N_115parseSpecialTagERKNSt7__cxx1112basic_stringIcSt11char_traitsIcESaIcEEE
FNDA:0,_ZN5Catch12_GLOBAL__N_112NoColourImpl8instanceEv
FNDA:1,_ZN5Catch4listERKSt10shared_ptrINS_6ConfigEE
FNDA:1,_ZN5Catch5clara6detail3OptC2IZNS_21makeCommandLineParserERNS_10ConfigDataEEUlRKNSt7__cxx1112basic_stringIcSt11char_traitsIcESaIcEEEE_EERKT_SD_
FNDA:0,_ZN5Catch9XmlWriter18newlineIfNecessaryEv
FNDA:1,_ZN5Catch12SectionStatsD2Ev
FNDA:1,_ZN5Catch21StreamingReporterBaseINS_15ConsoleReporterEE12testRunEndedERKNS_12TestRunStatsE
FNDA:0,_ZN5Catch9XmlWriter13ScopedElementD2Ev
FNDA:1,_ZN5Catch7Session11runInternalEv
FNDA:0,_ZN5Catch11XmlReporter15sectionStartingERKNS_11SectionInfoE
FNDA:1,_ZNK5Catch6Config11minDurationEv
FNDA:0,_ZN5Catch10Generators16GeneratorTracker12setGeneratorEOSt10unique_ptrINS0_20GeneratorUntypedBaseESt14default_deleteIS3_EE
FNDA:1,_ZN5Catch5clara6detail13ParserRefImplINS1_3OptEEC2IZNS_21makeCommandLineParserERNS_10ConfigDataEEUlRKNSt7__cxx1112basic_stringIcSt11char_traitsIcESaIcEEEE_EERKT_SF_
FNDA:2,_ZN5Catch16TestCaseTracking11TrackerBaseC2ERKNS0_15NameAndLocationERNS0_14TrackerContextEPNS0_8ITrackerE
FNDA:0,_ZN5Catch5clara6detail11convertIntoERKNSt7__cxx1112basic_stringIcSt11char_traitsIcESaIcEEERb
FNDA:1,_ZN5Catch16TestCaseTracking11TrackerBase9openChildEv
FNDA:0,_ZN5Catch5clara6detail13LambdaInvokerINS1_11BasicResultINS1_15ParseResultTypeEEEE6invokeIZNS_21makeCommandLineParserERNS_10ConfigDataEEUlRKNSt7__cxx1112basic_stringIcSt11char_traitsIcESaIcEEEE4_SF_EES5_RKT_RKT0_
FNDA:0,_ZNK5Catch9StringRef16isNullTerminatedEv
FNDA:0,_ZN5Catch14TestSpecParser20revertBackToLastModeEv
FNDA:1,_ZNK5Catch5clara6detail6ParserorINS1_3ArgEEES2_RKT_
FNDA:0,_ZN5Catch21StreamingReporterBaseINS_11XmlReporterEE16testCaseStartingERKNS_12TestCaseInfoE
FNDA:0,_ZNK5Catch5clara6detail8BoundRef11isContainerEv
FNDA:0,_ZNK5Catch16AssertionHandler11allowThrowsEv
FNDA:1,_ZN5Catch16AssertionHandler12setCompletedEv
FNDA:0,_ZNK5Catch5clara6detail10ParserBase11cardinalityEv
FNDA:1,_ZN5Catch8LazyStatINS_11TestRunInfoEEaSERKS1_
FNDA:0,_ZN5Catch4isOkENS_9ResultWas6OfTypeE
FNDA:2,_ZN5Catch8LazyStatINS_12TestCaseInfoEE5resetEv
FNDA:1,_ZNK5Catch16TestCaseTracking11TrackerBase23isSuccessfullyCompletedEv
FNDA:0,_ZZN5Catch21makeCommandLineParserERNS_10ConfigDataEENKUlRKNSt7__cxx1112basic_stringIcSt11char_traitsIcESaIcEEEE5_clES9_
FNDA:4,_ZNK5Catch6Config8testSpecEv
FNDA:0,_ZN5Catch16ReporterRegistry16registerListenerERKSt10shared_ptrINS_16IReporterFactoryEE
FNDA:0,_ZNK5Catch16ReporterRegistry12getFactoriesB5cxx11Ev
FNDA:0,_ZN5Catch5clara6detail12invokeLambdaIbZNS_21makeCommandLineParserERNS_10ConfigDataEEUlbE9_EENS1_11BasicResultINS1_15ParseResultTypeEEERKT0_RKNSt7__cxx1112basic_stringIcSt11char_traitsIcESaIcEEE
FNDA:1,_ZN5Catch14toLowerInPlaceERNSt7__cxx1112basic_stringIcSt11char_traitsIcESaIcEEE
FNDA:0,_ZN5Catch12_GLOBAL__N_119getCurrentTimestampEv
FNDA:0,_ZN5Catch17ListeningReporter16testCaseStartingERKNS_12TestCaseInfoE
FNDA:0,_ZN5Catch9XmlWriter12writeCommentERKNSt7__cxx1112basic_stringIcSt11char_traitsIcESaIcEEENS_13XmlFormattingE
FNDA:0,_ZN5Catch8TestSpec7PatternD0Ev
FNDA:0,_ZN5Catch13ScopedMessageD2Ev
FNDA:0,_ZN5Catch16AssertionHandler33handleUnexpectedInflightExceptionEv
FNDA:1,_ZN5Catch6OptionINS_9GroupInfoEED2Ev
FNDA:0,_ZN5Catch22CumulativeReporterBaseINS_13JunitReporterEE13testCaseEndedERKNS_13TestCaseStatsE
FNDA:0,_ZNK5Catch16TestCaseTracking11TrackerBase10hasStartedEv
FNDA:0,_ZN5Catch20ReusableStringStreamlsIA37_cEERS0_RKT_
FNDA:0,_ZN5Catch21StreamingReporterBaseINS_21TestEventListenerBaseEE19noMatchingTestCasesERKNSt7__cxx1112basic_stringIcSt11char_traitsIcESaIcEEE
FNDA:1,_ZN5Catch5clara6detail3OptC2IZNS_21makeCommandLineParserERNS_10ConfigDataEEUlbE7_EERKT_
FNDA:0,_ZNK5Catch8Matchers9StdString11CasedString12adjustStringERKNSt7__cxx1112basic_stringIcSt11char_traitsIcESaIcEEE
FNDA:0,_ZN5Catch12_GLOBAL__N_111printTotalsERSoRKNS_6TotalsE
FNDA:1,_ZN5Catch6OptionImEC2Ev
FNDA:1,_ZN5Catch4coutEv
FNDA:0,_ZN5Catch14MessageBuilderlsINSt7__cxx1112basic_stringIcSt11char_traitsIcESaIcEEEEERS0_RKT_
FNDA:1,_ZN5Catch8LazyStatINS_12TestCaseInfoEEaSERKS1_
FNDA:0,_ZN5Catch8Matchers9WithinRelEff
FNDA:1,_ZN5Catch21StreamingReporterBaseINS_15ConsoleReporterEEC2ERKNS_14ReporterConfigE
FNDA:0,_ZN5Catch17ListeningReporter12testRunEndedERKNS_12TestRunStatsE
FNDA:11,_ZN5Catch12_GLOBAL__N_19toLowerChEc
FNDA:0,_ZNK5Catch5clara6detail11BasicResultINS1_15ParseResultTypeEE4typeEv
FNDA:0,_ZN5Catch14TestSpecParser15processNameCharEc
FNDA:1,_ZN5Catch7IConfigD2Ev
FNDA:2,_ZN5Catch5clara6detail13ParserRefImplINS1_3OptEEC2IjEERT_RKNSt7__cxx1112basic_stringIcSt11char_traitsIcESaIcEEE
FNDA:0,_ZN5Catch5clara6detail15ResultValueBaseINS1_10ParseStateEEC2ENS1_10ResultBase4TypeE
FNDA:0,_ZN5Catch17IGeneratorTrackerD2Ev
FNDA:0,_ZNK5Catch27ExceptionTranslatorRegistry14tryTranslatorsB5cxx11Ev
FNDA:0,_ZN5Catch12ratio_stringISt5ratioILl1ELl1000000EEE6symbolB5cxx11Ev
FNDA:1,_ZN5Catch14TestSpecParser8testSpecEv
FNDA:1,_ZNK5Catch5Timer21getElapsedNanosecondsEv
FNDA:0,_ZN5Catch21StreamingReporterBaseINS_11XmlReporterEED2Ev
FNDA:0,_ZN5Catch5clara6detail11BoundLambdaIZNS_21makeCommandLineParserERNS_10ConfigDataEEUlRKNSt7__cxx1112basic_stringIcSt11char_traitsIcESaIcEEEE6_E8setValueESC_
FNDA:0,_ZNK5Catch5clara6detail13ParserRefImplINS1_3OptEE11cardinalityEv
FNDA:0,_ZNK5Catch5clara8TextFlow7Columns5beginEv
FNDA:0,_ZN5Catch8Matchers8Floating17WithinUlpsMatcherC2EdmNS1_17FloatingPointKindE
FNDA:1,_ZN5Catch15ConsoleReporter11printTotalsERKNS_6TotalsE
FNDA:1,_ZN5Catch5clara6detail10ParseStateC2ENS1_15ParseResultTypeERKNS1_11TokenStreamE
FNDA:0,_ZZN5Catch16TestCaseTracking11TrackerBase5closeEvENKUlRKSt10shared_ptrINS0_8ITrackerEEE_clES6_
FNDA:0,_ZN5Catch19AssertionResultDataC2ENS_9ResultWas6OfTypeERKNS_14LazyExpressionE
FNDA:0,_ZN5Catch9XmlWriter14writeAttributeIA4_cEERS0_RKNSt7__cxx1112basic_stringIcSt11char_traitsIcESaIcEEERKT_
FNDA:0,_ZN5Catch10Generators16GeneratorTrackerD0Ev
FNDA:0,_ZN5Catch5clara6detail11BoundLambdaIZNS_21makeCommandLineParserERNS_10ConfigDataEEUlbE9_E8setValueERKNSt7__cxx1112basic_stringIcSt11char_traitsIcESaIcEEE
FNDA:0,_ZN5Catch17ListeningReporter8skipTestERKNS_12TestCaseInfoE
FNDA:0,_ZN5Catch5clara6detail11BasicResultIvE2okEv
FNDA:0,_ZNK5Catch12TestCaseInfo6throwsEv
FNDA:0,_ZN5Catch12_GLOBAL__N_19nextafterEff
FNDA:4,_ZN5CatchlsERSoRKNS_6ColourE
FNDA:0,_ZN5Catch8TagAliasC2ERKNSt7__cxx1112basic_stringIcSt11char_traitsIcESaIcEEENS_14SourceLineInfoE
FNDA:0,_ZN5Catch11XmlReporter14getDescriptionB5cxx11Ev
FNDA:1,_ZNK5Catch5clara6detail4Args7exeNameB5cxx11Ev
FNDA:1,_ZN5Catch10BinaryExprIbbEC2EbbNS_9StringRefEb
FNDA:0,_ZN5Catch10RunContext23acquireGeneratorTrackerENS_9StringRefERKNS_14SourceLineInfoE
FNDA:9,_ZNK5Catch7Context9getConfigEv
FNDA:0,_ZN5Catch11StringMakerIPKwvE7convertB5cxx11ES2_
FNDA:0,_ZN5CatchorENS_17ResultDisposition5FlagsES1_
FNDA:1,_ZN5Catch6OptionINS_12TestCaseInfoEEC2Ev
FNDA:0,_ZN5Catch9XmlWriter14writeAttributeIA31_cEERS0_RKNSt7__cxx1112basic_stringIcSt11char_traitsIcESaIcEEERKT_
FNDA:0,_ZN5Catch5clara8TextFlow6ColumnC2ERKNSt7__cxx1112basic_stringIcSt11char_traitsIcESaIcEEE
FNDA:9,_ZNK5Catch6Detail12_GLOBAL__N_110CoutStream6streamEv
FNDA:0,_ZN5Catch22CumulativeReporterBaseINS_13JunitReporterEE11SectionNodeD2Ev
FNDA:0,_ZN5Catch11NonCopyableD0Ev
FNDA:0,_ZN5Catch16ReporterRegistryD0Ev
FNDA:1,_Zli9_catch_srPKcm
FNDA:0,_ZN5Catch20ITransientExpressionD0Ev
FNDA:0,_ZN5Catch5clara8TextFlow6Column13initialIndentEm
FNDA:1,_ZN5Catch17ITagAliasRegistryD2Ev
FNDA:0,_ZN5Catch21StreamingReporterBaseINS_15CompactReporterEE22reportInvalidArgumentsERKNSt7__cxx1112basic_stringIcSt11char_traitsIcESaIcEEE
FNDA:0,_ZNK5Catch5clara6detail11TokenStreamptEv
FNDA:0,_ZNK5Catch14SourceLineInfoeqERKS0_
FNDA:0,_ZNK5Catch17ReporterRegistrarINS_15ConsoleReporterEE15ReporterFactory14getDescriptionB5cxx11Ev
FNDA:0,_ZN5Catch18IStreamingReporterD0Ev
FNDA:0,_ZN5Catch5clara6detail13LambdaInvokerINS1_11BasicResultINS1_15ParseResultTypeEEEE6invokeIZNS_21makeCommandLineParserERNS_10ConfigDataEEUlRKNSt7__cxx1112basic_stringIcSt11char_traitsIcESaIcEEEE1_SF_EES5_RKT_RKT0_
FNDA:0,_ZN5Catch20ReusableStringStreamlsIA8_cEERS0_RKT_
FNDA:0,_ZN5Catch5clara6detail12normaliseOptERKNSt7__cxx1112basic_stringIcSt11char_traitsIcESaIcEEE
FNDA:0,_ZN5Catch12TestRegistryD0Ev
FNDA:5,_ZN5Catch9SingletonINS_12_GLOBAL__N_111RegistryHubENS_12IRegistryHubENS_19IMutableRegistryHubEE10getMutableEv
FNDA:0,_ZN5Catch16isDebuggerActiveEv
FNDA:1,_ZN5Catch14ReporterConfigC2ERKSt10shared_ptrIKNS_7IConfigEE
FNDA:1,_ZN5Catch5clara6detail3OptC2IZNS1_4HelpC4ERbEUlbE_EERKT_
FNDA:2,_ZN5Catch5clara6detail13ParserRefImplINS1_3OptEEC2IdEERT_RKNSt7__cxx1112basic_stringIcSt11char_traitsIcESaIcEEE
FNDA:1,_ZNK5Catch12TestRegistry17getAllTestsSortedERKNS_7IConfigE
FNDA:0,_ZNK5Catch12_GLOBAL__N_116AssertionPrinter15printSourceInfoEv
FNDA:1,_ZNK5Catch6Totals5deltaERKS0_
FNDA:1,_ZN5Catch12TestRunStatsC2ERKNS_11TestRunInfoERKNS_6TotalsEb
FNDA:0,_ZN5Catch12ratio_stringISt5ratioILl1ELl1000000000000EEE6symbolB5cxx11Ev
FNDA:1,_ZN5Catch21StreamingReporterBaseINS_15ConsoleReporterEE13testCaseEndedERKNS_13TestCaseStatsE
FNDA:0,_ZN5Catch7Session3cliERKNS_5clara6detail6ParserE
FNDA:0,_ZN5Catch16TagAliasRegistry3addERKNSt7__cxx1112basic_stringIcSt11char_traitsIcESaIcEEES8_RKNS_14SourceLineInfoE
FNDA:0,_ZNK5Catch6Config11allowThrowsEv
FNDA:0,_ZN5Catch20ReusableStringStreamlsIA20_cEERS0_RKT_
FNDA:0,_ZN5Catch8CapturerD2Ev
FNDA:1,_ZN5Catch7Session6configEv
FNDA:0,_ZN5Catch5clara8TextFlow6Column6indentEm
FNDA:0,_ZN5Catch20ReusableStringStreamlsIA59_cEERS0_RKT_
FNDA:0,_ZN5Catch11StringMakerINSt7__cxx1112basic_stringIwSt11char_traitsIwESaIwEEEvE7convertERKS6_
FNDA:0,_ZNK5Catch8Matchers8Floating16WithinRelMatcher8describeB5cxx11Ev
FNDA:1,_ZN5Catch5Timer5startEv
FNDA:0,_ZN5Catch8Matchers9StdString17StartsWithMatcherC2ERKNS1_11CasedStringE
FNDA:0,_ZN5Catch8Matchers4Impl18MatcherUntypedBaseD0Ev
FNDA:0,_ZN5Catch21StreamingReporterBaseINS_21TestEventListenerBaseEED0Ev
FNDA:0,_ZN5Catch20ReusableStringStreamlsIPKcEERS0_RKT_
FNDA:1,_ZN5Catch7ExprLhsIbEC2Eb
FNDA:0,_ZN5Catch17ListeningReporter11addListenerEOSt10unique_ptrINS_18IStreamingReporterESt14default_deleteIS2_EE
FNDA:0,_ZN5Catch15ConsoleReporter16lazyPrintRunInfoEv
FNDA:0,_ZN5Catch15ConsoleReporter15printSummaryRowERKNSt7__cxx1112basic_stringIcSt11char_traitsIcESaIcEEERKSt6vectorINS_13SummaryColumnESaISA_EEm
FNDA:0,_ZN5Catch20ReusableStringStreamlsIA3_cEERS0_RKT_
FNDA:1,_ZN5Catch15ConsoleReporter15testRunStartingERKNS_11TestRunInfoE
FNDA:0,_ZN5Catch6Detail12makeEnumInfoENS_9StringRefES1_RKSt6vectorIiSaIiEE
FNDA:0,_ZN5Catch21TestEventListenerBase23getSupportedVerbositiesEv
FNDA:0,_ZN5Catch14MessageBuilderC2ERKNS_9StringRefERKNS_14SourceLineInfoENS_9ResultWas6OfTypeE
FNDA:0,_ZNK5Catch8Matchers9StdString15EndsWithMatcher5matchERKNSt7__cxx1112basic_stringIcSt11char_traitsIcESaIcEEE
FNDA:0,_ZN5Catch15throw_exceptionISt12domain_errorEEvRKT_
FNDA:0,_ZN5Catch5clara6detail15BoundFlagLambdaIZNS1_4HelpC4ERbEUlbE_E7setFlagEb
FNDA:0,_ZNK5Catch14LazyExpressioncvbEv
FNDA:0,_ZN5Catch9SingletonINS_13StringStreamsES1_S1_E11getInternalEv
FNDA:1,_ZN5Catch10ErrnoGuardC2Ev
FNDA:0,_ZNK5Catch5clara6detail13ParserRefImplINS1_3ArgEE10isOptionalEv
FNDA:0,_ZN5Catch9XmlWriter13ScopedElement14writeAttributeIA12_cEERS1_RKNSt7__cxx1112basic_stringIcSt11char_traitsIcESaIcEEERKT_
FNDA:1,_ZNK5Catch6Config16warnAboutNoTestsEv
FNDA:0,_ZNK5Catch5clara8TextFlow7Columns8iteratordeB5cxx11Ev
FNDA:0,_ZZN5Catch21makeCommandLineParserERNS_10ConfigDataEENKUlRKNSt7__cxx1112basic_stringIcSt11char_traitsIcESaIcEEEE2_clES9_
FNDA:0,_ZN5Catch8Matchers9StdString13EqualsMatcherC2ERKNS1_11CasedStringE
FNDA:4,_ZNK5Catch10RunContext8abortingEv
FNDA:0,_ZN5Catch9XmlWriter14writeAttributeIA1_cEERS0_RKNSt7__cxx1112basic_stringIcSt11char_traitsIcESaIcEEERKT_
FNDA:1,_ZN5Catch5clara6detail11BoundLambdaIZNS_21makeCommandLineParserERNS_10ConfigDataEEUliE8_EC2ERKS5_
FNDA:1,_ZN5Catch5clara6detail11convertIntoERKNSt7__cxx1112basic_stringIcSt11char_traitsIcESaIcEEERS7_
FNDA:0,_ZN5Catch15ConsoleReporter17printHeaderStringERKNSt7__cxx1112basic_stringIcSt11char_traitsIcESaIcEEEm
FNDA:0,_ZNK5Catch5clara8TextFlow6Column8iterator4lineB5cxx11Ev
FNDA:0,_ZN5Catch14TestGroupStatsC2ERKNS_9GroupInfoE
FNDA:0,_ZNK5Catch16TestCaseTracking11TrackerBase16isSectionTrackerEv
FNDA:0,_ZN5Catch11XmlReporterD2Ev
FNDA:1,_ZN5Catch5clara6detail13BoundValueRefINSt7__cxx1112basic_stringIcSt11char_traitsIcESaIcEEEE8setValueERKS8_
FNDA:2,_ZNK5Catch6Config13showDurationsEv
FNDA:0,_ZN5Catch9XmlWriter10endElementENS_13XmlFormattingE
FNDA:0,_ZN5Catch8TestSpec7PatternC2ERKNSt7__cxx1112basic_stringIcSt11char_traitsIcESaIcEEE
FNDA:0,_ZNK5Catch15AssertionResult13getResultTypeEv
FNDA:0,_ZN5Catch12_GLOBAL__N_116AssertionPrinter22printRemainingMessagesENS_6Colour4CodeE
FNDA:1,_ZN5Catch10RunContext18resetAssertionInfoEv
FNDA:0,_ZN5Catch16TestCaseTrackingeqERKNS0_15NameAndLocationES3_
FNDA:0,_ZN5Catch18listTestsNamesOnlyERKNS_6ConfigE
FNDA:0,_ZN5Catch6OptionImEaSERKm
FNDA:0,_ZN5Catch8TestSpec15ExcludedPatternC2ERKSt10shared_ptrINS0_7PatternEE
FNDA:0,_ZNK5Catch6Detail8EnumInfo6lookupEi
FNDA:0,_ZN5Catch10RunContext22emplaceUnscopedMessageERKNS_14MessageBuilderE
FNDA:2,_ZN5Catch8LazyStatINS_9GroupInfoEE5resetEv
FNDA:0,_ZN5Catch15CompactReporter12sectionEndedERKNS_12SectionStatsE
FNDA:0,_ZN5Catch5clara6detail11convertIntoIlEENS1_11BasicResultINS1_15ParseResultTypeEEERKNSt7__cxx1112basic_stringIcSt11char_traitsIcESaIcEEERT_
FNDA:1,_ZNK5Catch24StartupExceptionRegistry13getExceptionsEv
FNDA:0,_ZNK5Catch5clara6detail7ExeName5parseERKNSt7__cxx1112basic_stringIcSt11char_traitsIcESaIcEEERKNS1_11TokenStreamE
FNDA:1,_ZN5Catch8LazyStatINS_9GroupInfoEEaSERKS1_
FNDA:0,_ZN5Catch5clara6detail12invokeLambdaINSt7__cxx1112basic_stringIcSt11char_traitsIcESaIcEEEZNS_21makeCommandLineParserERNS_10ConfigDataEEUlRKS8_E1_EENS1_11BasicResultINS1_15ParseResultTypeEEERKT0_SC_
FNDA:0,_ZN5Catch12_GLOBAL__N_14stepIdEET_S2_S2_m
FNDA:0,_ZN5Catch8Matchers9WithinAbsEdd
FNDA:0,_ZNK5Catch6Config16benchmarkSamplesEv
FNDA:0,_ZNK5Catch8TestSpec11NamePattern7matchesERKNS_12TestCaseInfoE
FNDA:0,_ZN5Catch11isThrowSafeERKNS_8TestCaseERKNS_7IConfigE
FNDA:0,_ZN5Catch10RunContext12sectionEndedERKNS_14SectionEndInfoE
FNDA:0,_ZN5Catch9XmlWriter14writeAttributeIjEERS0_RKNSt7__cxx1112basic_stringIcSt11char_traitsIcESaIcEEERKT_
FNDA:1,_ZN5Catch11TestRunInfoC2ERKNSt7__cxx1112basic_stringIcSt11char_traitsIcESaIcEEE
FNDA:0,_ZN12_GLOBAL__N_111reportFatalEPKc
FNDA:2,_ZN5Catch5clara6detail15ResultValueBaseINS1_10ParseStateEED2Ev
FNDA:4,_ZN5Catch16IReporterFactoryD2Ev
FNDA:0,_ZN5Catch6Detail12_GLOBAL__N_113StreamBufImplINS1_17OutputDebugWriterELm256EE4syncEv
FNDA:0,_ZN5Catch21StreamingReporterBaseINS_15CompactReporterEE19noMatchingTestCasesERKNSt7__cxx1112basic_stringIcSt11char_traitsIcESaIcEEE
FNDA:0,_ZN5Catch5clara6detail12invokeLambdaINSt7__cxx1112basic_stringIcSt11char_traitsIcESaIcEEEZNS_21makeCommandLineParserERNS_10ConfigDataEEUlRKS8_E0_EENS1_11BasicResultINS1_15ParseResultTypeEEERKT0_SC_
FNDA:0,_ZN5Catch9XmlWriter14writeAttributeERKNSt7__cxx1112basic_stringIcSt11char_traitsIcESaIcEEES8_
FNDA:0,_ZN5Catch14TestSpecParser9visitCharEc
FNDA:0,_ZN5Catch14replaceInPlaceERNSt7__cxx1112basic_stringIcSt11char_traitsIcESaIcEEERKS5_S8_
FNDA:0,_ZNK5Catch12_GLOBAL__N_116AssertionPrinter28printReconstructedExpressionEv
FNDA:0,_ZN5Catch12_GLOBAL__N_123ConsoleAssertionPrinterC2ERSoRKNS_14AssertionStatsEb
FNDA:0,_ZN5Catch13TestCaseStatsC2ERKS0_
FNDA:0,_ZN5Catch17ListeningReporter11addReporterEOSt10unique_ptrINS_18IStreamingReporterESt14default_deleteIS2_EE
FNDA:0,_ZN5Catch15ConsoleReporter17printClosedHeaderERKNSt7__cxx1112basic_stringIcSt11char_traitsIcESaIcEEE
FNDA:0,_ZN5Catch17throw_logic_errorERKNSt7__cxx1112basic_stringIcSt11char_traitsIcESaIcEEE
FNDA:0,_ZN5Catch11filterTestsERKSt6vectorINS_8TestCaseESaIS1_EERKNS_8TestSpecERKNS_7IConfigE
FNDA:1,_ZN5Catch21makeCommandLineParserERNS_10ConfigDataE
FNDA:1,_ZN5Catch16TestCaseTracking14SectionTracker7acquireERNS0_14TrackerContextERKNS0_15NameAndLocationE
FNDA:0,_ZN5Catch10fpToStringIdEENSt7__cxx1112basic_stringIcSt11char_traitsIcESaIcEEET_i
FNDA:0,_ZN5Catch10RunContext19lastAssertionPassedEv
FNDA:0,_ZN5Catch8literalsli2_aEy
FNDA:0,_ZN5Catch15IMutableContextD0Ev
FNDA:8,_ZN5Catch12_GLOBAL__N_115PosixColourImpl9setColourEPKc
FNDA:0,_ZN5Catch20ReusableStringStreamlsIA12_cEERS0_RKT_
FNDA:0,_ZN5Catch14getLineOfCharsILc46EEEPKcv
FNDA:1,_ZN5Catch5clara6detail13ParserRefImplINS1_3ArgEEclERKNSt7__cxx1112basic_stringIcSt11char_traitsIcESaIcEEE
FNDA:0,_ZN5Catch5clara8TextFlow6Column8iteratorC2ERKS2_m
FNDA:1,_ZN5Catch16TestCaseTracking11TrackerBase5closeEv
FNDA:0,_ZN5CatchlsERSoRKNS_9StringRefE
FNDA:0,_ZN5Catch21StreamingReporterBaseINS_21TestEventListenerBaseEE15testRunStartingERKNS_11TestRunInfoE
FNDA:0,_ZNK5Catch8Matchers9StdString17StartsWithMatcher5matchERKNSt7__cxx1112basic_stringIcSt11char_traitsIcESaIcEEE
FNDA:0,_ZN5Catch5clara6detail10ResultBaseD0Ev
FNDA:1,_ZN5Catch7ExprLhsIbEeqEb
FNDA:0,_ZZN5Catch9sortTestsERKNS_7IConfigERKSt6vectorINS_8TestCaseESaIS4_EEENKUlRKSt4pairImPKS4_ESE_E_clESE_SE_
FNDA:0,_ZN5Catch17ListeningReporter15sectionStartingERKNS_11SectionInfoE
FNDA:0,_ZN5Catch14LazyExpressionC2ERKS0_
FNDA:1,_ZNK5Catch5clara6detail6ParserorINS1_7ExeNameEEES2_RKT_
FNDA:31,_ZN5Catch5clara6detail13ParserRefImplINS1_3OptEEclERKNSt7__cxx1112basic_stringIcSt11char_traitsIcESaIcEEE
FNDA:1,_ZN5Catch7Context9setRunnerEPNS_7IRunnerE
FNDA:0,_ZNK5Catch7Session8showHelpEv
FNDA:1,_ZNK5Catch5clara6detail10ParserBase5parseERKNS1_4ArgsE
FNDA:0,_ZN5Catch5clara6detail13BoundValueRefIdE8setValueERKNSt7__cxx1112basic_stringIcSt11char_traitsIcESaIcEEE
FNDA:1,_ZN5Catch5clara6detail13BoundValueRefIlEC2ERl
FNDA:0,_ZN5Catch17ListeningReporterC2Ev
FNDA:1,_ZN5Catch12IRegistryHubD2Ev
FNDA:0,_ZN5Catch20IExceptionTranslatorD0Ev
FNDA:0,_ZN5Catch12_GLOBAL__N_116AssertionPrinter5printEv
FNDA:0,_ZN5Catch6Detail12_GLOBAL__N_110Endianness5whichEv
FNDA:0,_ZN5Catch8Matchers9StdString11CasedStringC2ERKNSt7__cxx1112basic_stringIcSt11char_traitsIcESaIcEEENS_13CaseSensitive6ChoiceE
FNDA:0,_ZNK5Catch17ReporterRegistrarINS_11XmlReporterEE15ReporterFactory6createERKNS_14ReporterConfigE
FNDA:0,_ZN5Catch11StringMakerIhvE7convertB5cxx11Eh
FNDA:1,_ZN5Catch10DecomposerleEb
FNDA:1,_ZN5Catch6OptionImE5resetEv
FNDA:0,_ZNK5Catch14SourceLineInfoltERKS0_
FNDA:1,_ZNK5Catch5Timer22getElapsedMicrosecondsEv
FNDA:0,_ZN5Catch9XmlWriter14writeAttributeIA12_cEERS0_RKNSt7__cxx1112basic_stringIcSt11char_traitsIcESaIcEEERKT_
FNDA:0,_ZN5Catch17ListeningReporter12sectionEndedERKNS_12SectionStatsE
FNDA:1,_ZN5Catch16ReporterRegistryD2Ev
FNDA:11,_ZN5Catch5clara6detail3OptC2ERb
FNDA:8,_ZN5Catch6Colour3useENS0_4CodeE
FNDA:0,_ZN12_GLOBAL__N_19bothOrAllEm
FNDA:0,_ZN5Catch21StreamingReporterBaseINS_21TestEventListenerBaseEE16testCaseStartingERKNS_12TestCaseInfoE
FNDA:0,_ZN5Catch14TestSpecParser5parseERKNSt7__cxx1112basic_stringIcSt11char_traitsIcESaIcEEE
FNDA:4,_ZN5Catch6OptionINS_9GroupInfoEE5resetEv
FNDA:2,_ZNK5Catch9StringRefcvNSt7__cxx1112basic_stringIcSt11char_traitsIcESaIcEEEEv
FNDA:1,_ZN5Catch5clara6detail6ParseroRERKNS1_7ExeNameE
FNDA:2,_ZN5Catch5clara6detail10ResultBaseC2ENS2_4TypeE
FNDA:0,_ZNK5Catch6Config11getFilenameB5cxx11Ev
FNDA:0,_ZN5Catch12_GLOBAL__N_111RegistryHub16registerListenerERKSt10shared_ptrINS_16IReporterFactoryEE
FNDA:0,_ZN5Catch12ratio_stringISt5ratioILl1ELl1000000000EEE6symbolB5cxx11Ev
FNDA:0,_ZNK5Catch8TestSpec15ExcludedPattern7matchesERKNS_12TestCaseInfoE
FNDA:0,_ZN5Catch8Matchers8EndsWithERKNSt7__cxx1112basic_stringIcSt11char_traitsIcESaIcEEENS_13CaseSensitive6ChoiceE
FNDA:0,_ZN5Catch8IContextD0Ev
FNDA:1,_ZNK5Catch9StringRef5emptyEv
FNDA:0,_ZNK5Catch9XmlEncode8encodeToERSo
FNDA:0,_ZN5Catch20ReusableStringStreamlsIcEERS0_RKT_
FNDA:0,_ZN5Catch24handleExceptionMatchExprERNS_16AssertionHandlerERKNS_8Matchers4Impl11MatcherBaseINSt7__cxx1112basic_stringIcSt11char_traitsIcESaIcEEEEERKNS_9StringRefE
FNDA:0,_ZN5Catch8TestSpec7PatternD2Ev
FNDA:0,_ZN5Catch10RunContext16populateReactionERNS_17AssertionReactionE
FNDA:1,_ZN5Catch21StreamingReporterBaseINS_15ConsoleReporterEE14testGroupEndedERKNS_14TestGroupStatsE
FNDA:1,_ZN5Catch5clara6detail3OptC2IZNS_21makeCommandLineParserERNS_10ConfigDataEEUlRKNSt7__cxx1112basic_stringIcSt11char_traitsIcESaIcEEEE6_EERKT_SD_
FNDA:0,_ZN5Catch8containsERKNSt7__cxx1112basic_stringIcSt11char_traitsIcESaIcEEES7_
FNDA:0,_ZN5Catch16AssertionHandler31handleExceptionThrownAsExpectedEv
FNDA:1,_ZN5Catch16TestCaseTracking14TrackerContext10startCycleEv
FNDA:0,_ZN5Catch20ReusableStringStreamlsISt8_SetfillIcEEERS0_RKT_
FNDA:1,_ZN5Catch15ConsoleReporterC2ERKNS_14ReporterConfigE
FNDA:0,_ZNK5Catch11MessageInfoeqERKS0_
FNDA:0,_ZN5Catch14TestSpecParser6escapeEv
FNDA:1,_ZN5Catch5clara6detail15ResultValueBaseINS1_15ParseResultTypeEED2Ev
FNDA:0,_ZNK5Catch13StreamEndStoppsB5cxx11Ev
FNDA:2,_ZNK5Catch6Counts9allPassedEv
FNDA:1,_ZN5Catch16AssertionHandler10handleExprERKNS_20ITransientExpressionE
FNDA:0,_ZNK5Catch7SectioncvbEv
FNDA:1,_ZN5Catch7setTagsERNS_12TestCaseInfoESt6vectorINSt7__cxx1112basic_stringIcSt11char_traitsIcESaIcEEESaIS8_EE
FNDA:1,_ZN5Catch5clara6detail13ParserRefImplINS1_3ArgEEC2ISt6vectorINSt7__cxx1112basic_stringIcSt11char_traitsIcESaIcEEESaISC_EEEERT_RKSC_
FNDA:0,_ZN5Catch21StreamingReporterBaseINS_21TestEventListenerBaseEE22reportInvalidArgumentsERKNSt7__cxx1112basic_stringIcSt11char_traitsIcESaIcEEE
FNDA:1,_ZN5Catch15ConsoleReporter14testGroupEndedERKNS_14TestGroupStatsE
FNDA:1,_ZNK5Catch6Config9useColourEv
FNDA:0,_ZN5Catch21StreamingReporterBaseINS_21TestEventListenerBaseEED2Ev
FNDA:0,_ZN5Catch15ConsoleReporter9lazyPrintEv
FNDA:0,_ZN5Catch6Detail6Approx6customEv
FNDA:1,_ZN5Catch5clara6detail3OptC2IZNS_21makeCommandLineParserERNS_10ConfigDataEEUlRKNSt7__cxx1112basic_stringIcSt11char_traitsIcESaIcEEEE3_EERKT_SD_
FNDA:1,_ZN5Catch15ConsoleReporterD0Ev
FNDA:0,_ZNK5Catch10RunContext6configEv
FNDA:0,_ZN5Catch17ITagAliasRegistryD0Ev
FNDA:1,_ZNK5Catch16ReporterRegistry12getListenersEv
FNDA:1,_ZN5Catch5clara6detail15ResultValueBaseINS1_10ParseStateEEC2ENS1_10ResultBase4TypeERKS3_
FNDA:0,_ZNK5Catch6Detail12_GLOBAL__N_110FileStream6streamEv
FNDA:1,_ZN5Catch5clara6detail11BoundLambdaIZNS_21makeCommandLineParserERNS_10ConfigDataEEUlRKNSt7__cxx1112basic_stringIcSt11char_traitsIcESaIcEEEE5_EC2ERKSD_
FNDA:0,_ZN5Catch8Matchers7Generic6Detail19finalizeDescriptionERKNSt7__cxx1112basic_stringIcSt11char_traitsIcESaIcEEE
FNDA:1,_ZN5Catch17ITagAliasRegistry3getEv
FNDA:0,_ZNK5Catch12_GLOBAL__N_123ConsoleAssertionPrinter5printEv
FNDA:0,_ZN5Catch10RunContext17pushScopedMessageERKNS_11MessageInfoE
FNDA:0,_ZNK5Catch5clara6detail10ParseState4typeEv
FNDA:1,_ZN5Catch5clara6detail11BoundLambdaIZNS_21makeCommandLineParserERNS_10ConfigDataEEUlRKNSt7__cxx1112basic_stringIcSt11char_traitsIcESaIcEEEE3_EC2ERKSD_
FNDA:1,_ZN5Catch15makeTestInvokerEPFvvE
FNDA:1,_ZN5Catch16AssertionHandler8completeEv
FNDA:0,_ZN5Catch12_GLOBAL__N_15writeIfEEvRSoT_
FNDA:0,_ZN5Catch7Session11libIdentifyEv
FNDA:33,_ZN5Catch5clara6detail8BoundRefD2Ev
FNDA:0,_ZNK5Catch5clara6detail11BasicResultINS1_15ParseResultTypeEE9enforceOkEv
FNDA:1,main
FNDA:0,_ZNK5Catch5clara6detail13ParserRefImplINS1_3ArgEE11cardinalityEv
FNDA:0,_ZNK5Catch9StringRefeqERKS0_
FNDA:0,_ZN5Catch20ReusableStringStreamlsIA44_cEERS0_RKT_
FNDA:0,_ZN5Catch18IStreamingReporter21fatalErrorEncounteredENS_9StringRefE
FNDA:0,_ZN5Catch6OptionINS_9GroupInfoEEptEv
FNDA:0,_ZN5Catch13JunitReporter19noMatchingTestCasesERKNSt7__cxx1112basic_stringIcSt11char_traitsIcESaIcEEE
FNDA:1,_ZN5Catch5clara6detail13ParserRefImplINS1_3OptEEC2ISt6vectorINSt7__cxx1112basic_stringIcSt11char_traitsIcESaIcEEESaISC_EEEERT_RKSC_
FNDA:0,_ZNK5Catch5clara6detail11BasicResultINS1_15ParseResultTypeEE12errorMessageB5cxx11Ev
FNDA:0,_ZN5Catch13ScopedMessageC2EOS0_
FNDA:1,_ZNK5Catch12_GLOBAL__N_111RegistryHub19getTagAliasRegistryEv
FNDA:0,_ZN5Catch9XmlWriter13ScopedElement14writeAttributeINSt7__cxx1112basic_stringIcSt11char_traitsIcESaIcEEEEERS1_RKS8_RKT_
FNDA:0,_ZZN5Catch16AssertionHandler8completeEvENKUlvE_clEv
FNDA:1,_ZN5Catch13TestCaseStatsC2ERKNS_12TestCaseInfoERKNS_6TotalsERKNSt7__cxx1112basic_stringIcSt11char_traitsIcESaIcEEESE_b
FNDA:1,_ZN5Catch8IContextD2Ev
FNDA:0,_ZN5Catch13JunitReporter12writeSectionERKNSt7__cxx1112basic_stringIcSt11char_traitsIcESaIcEEES8_RKNS_22CumulativeReporterBaseIS0_E11SectionNodeEb
FNDA:0,_ZN5Catch20ReusableStringStreamlsIA21_cEERS0_RKT_
FNDA:1,_ZN5Catch6Detail12_GLOBAL__N_110CoutStreamD0Ev
FNDA:0,_ZN5Catch7SectionD2Ev
FNDA:0,_ZNK5Catch22CumulativeReporterBaseINS_13JunitReporterEE13BySectionInfoclERKSt10shared_ptrINS2_11SectionNodeEE
FNDA:0,_ZN5Catch15ConsoleReporter37lazyPrintWithoutClosingBenchmarkTableEv
FNDA:1,_ZNK5Catch12TestCaseInfo14expectedToFailEv
FNDA:0,_ZNK5Catch16RedirectedStdOut3strB5cxx11Ev
FNDA:0,_ZN12_GLOBAL__N_19dimColourEv
FNDA:1,_ZNK5Catch12_GLOBAL__N_111RegistryHub19getTestCaseRegistryEv
FNDA:0,_ZN5Catch20ReusableStringStreamlsIA19_cEERS0_RKT_
FNDA:3,_ZN5Catch6CountspLERKS0_
FNDA:0,_ZNK5Catch8TestSpec7matchesERKNS_12TestCaseInfoE
FNDA:0,_ZNK5Catch5clara8TextFlow6Column8iterator6indentEv
FNDA:0,_ZNK5Catch8Matchers9StdString17StringMatcherBase8describeB5cxx11Ev
FNDA:0,_ZN5Catch20ReusableStringStreamlsIA17_cEERS0_RKT_
FNDA:1,_ZNK5Catch6Config19benchmarkNoAnalysisEv
FNDA:1,_ZNK5Catch5clara6detail10ParseState15remainingTokensEv
FNDA:0,_ZN5Catch12SectionStatsaSERKS0_
FNDA:0,_ZN5Catch11XmlReporter17testGroupStartingERKNS_9GroupInfoE
FNDA:0,_ZN5Catch6Detail12_GLOBAL__N_110FileStreamD0Ev
FNDA:0,_ZN5Catch22CumulativeReporterBaseINS_13JunitReporterEE23getSupportedVerbositiesEv
FNDA:0,_ZN5Catch6Detail9stringifyINSt7__cxx1112basic_stringIwSt11char_traitsIwESaIwEEEEENS3_IcS4_IcESaIcEEERKT_
FNDA:1,_ZN5Catch6OptionINS_11TestRunInfoEEC2Ev
FNDA:1,_ZN5Catch6OptionINS_9GroupInfoEEC2Ev
FNDA:0,_ZNK5Catch12_GLOBAL__N_111RegistryHub30getExceptionTranslatorRegistryEv
FNDA:0,_ZN5Catch8Matchers9WithinRelEf
FNDA:0,_ZN5Catch20ReusableStringStreamlsIA23_cEERS0_RKT_
FNDA:1,_ZN5Catch18IStreamingReporterD2Ev
FNDA:0,_ZN5Catch11StringMakerIfvE7convertB5cxx11Ef
FNDA:0,_ZN5Catch9XmlWriter18writeStylesheetRefERKNSt7__cxx1112basic_stringIcSt11char_traitsIcESaIcEEE
FNDA:1,_ZN5Catch5clara6detail11BoundLambdaIZNS_21makeCommandLineParserERNS_10ConfigDataEEUlRKNSt7__cxx1112basic_stringIcSt11char_traitsIcESaIcEEEE6_EC2ERKSD_
FNDA:0,_ZN5Catch27ExceptionTranslatorRegistryD0Ev
FNF:1327
FNH:404
DA:503,4
DA:504,4
DA:505,4
DA:506,4
DA:616,2
DA:620,6
DA:621,6
DA:622,6
DA:623,6
DA:625,1
DA:626,1
DA:627,1
DA:628,1
DA:630,2
DA:631,2
DA:640,0
DA:641,0
DA:642,0
DA:646,1
DA:647,1
DA:649,0
DA:650,0
DA:666,0
DA:667,0
DA:671,1
DA:672,1
DA:678,1
DA:679,1
DA:683,1
DA:684,1
DA:1386,1
DA:1448,0
DA:1449,0
DA:1450,0
DA:1452,0
DA:1617,0
DA:1618,0
DA:1621,0
DA:1622,0
DA:1623,0
DA:1642,0
DA:1643,0
DA:2201,0
DA:2202,1
DA:2205,1
DA:2206,1
DA:2207,1
DA:2208,1
DA:2227,0
DA:2229,0
DA:2230,0
DA:2233,1
DA:2235,1
DA:2236,1
DA:2237,1
DA:2238,1
DA:2339,1
DA:2345,1
DA:2346,1
DA:2418,1
DA:2419,1
DA:2558,1
DA:2559,1
DA:2560,0
DA:2562,1
DA:2631,0
DA:2632,0
DA:2633,0
DA:3103,0
DA:3104,0
DA:3243,0
DA:3401,0
DA:3402,0
DA:3403,0
DA:3773,0
DA:3774,0
DA:3775,0
DA:3776,0
DA:3777,0
DA:3778,0
DA:3780,0
DA:3781,0
DA:3782,0
DA:3783,0
DA:3784,0
DA:3786,0
DA:3787,0
DA:3875,0
DA:3876,0
DA:4374,12
DA:4376,12
DA:4377,1
DA:4379,12
DA:4382,10
DA:4384,10
DA:4404,5
DA:4412,5
DA:4413,5
DA:4414,5
DA:4424,3
DA:4425,3
DA:4426,3
DA:4427,3
DA:4430,13
DA:4431,13
DA:4432,3
DA:4433,13
DA:4434,13
DA:4436,0
DA:4437,0
DA:4438,0
DA:4441,0
DA:4442,0
DA:4445,1
DA:4449,1
DA:4450,1
DA:4563,0
DA:5084,0
DA:5236,0
DA:5237,0
DA:5238,0
DA:5239,0
DA:5240,0
DA:5315,1
DA:5494,3
DA:5495,3
DA:5496,3
DA:5497,3
DA:5499,5
DA:5500,5
DA:5501,5
DA:5502,5
DA:5525,0
DA:5541,0
DA:5543,0
DA:5560,0
DA:5579,0
DA:5595,0
DA:5645,1
DA:5655,0
DA:5731,1
DA:5732,1
DA:5733,1
DA:5735,1
DA:5736,1
DA:5737,0
DA:5738,1
DA:5740,2
DA:5741,2
DA:5744,1
DA:5745,1
DA:5748,1
DA:5750,0
DA:5752,0
DA:5754,1
DA:5755,1
DA:5756,1
DA:5758,1
DA:5759,1
DA:5760,1
DA:5762,1
DA:5763,1
DA:5764,1
DA:5765,1
DA:5766,1
DA:5767,1
DA:5769,1
DA:5770,1
DA:5771,1
DA:5772,1
DA:5773,1
DA:5774,1
DA:5775,1
DA:5776,1
DA:5777,1
DA:5778,1
DA:5779,1
DA:5780,1
DA:5781,1
DA:5782,1
DA:5784,0
DA:5787,0
DA:5804,0
DA:5805,0
DA:5812,0
DA:5813,0
DA:5832,0
DA:5833,0
DA:5834,0
DA:5835,0
DA:5836,0
DA:5848,0
DA:5849,0
DA:5850,0
DA:5852,0
DA:5853,0
DA:5854,0
DA:5855,0
DA:5856,0
DA:5858,0
DA:5859,0
DA:5862,0
DA:5863,0
DA:5866,0
DA:5867,0
DA:5869,0
DA:5871,0
DA:5872,0
DA:5873,0
DA:5874,0
DA:5875,0
DA:5876,0
DA:5877,0
DA:5880,0
DA:5882,0
DA:5884,0
DA:5885,0
DA:5886,0
DA:5887,0
DA:5890,0
DA:5892,0
DA:5893,0
DA:5894,0
DA:5896,0
DA:5898,0
DA:5899,0
DA:5905,0
DA:5906,0
DA:5907,0
DA:5908,0
DA:5910,0
DA:5911,0
DA:5912,0
DA:5913,0
DA:5914,0
DA:5915,0
DA:5916,0
DA:5917,0
DA:5918,0
DA:5919,0
DA:5920,0
DA:5921,0
DA:5923,0
DA:5924,0
DA:5925,0
DA:5926,0
DA:5927,0
DA:5928,0
DA:5929,0
DA:5930,0
DA:5931,0
DA:5932,0
DA:5933,0
DA:5934,0
DA:5935,0
DA:5936,0
DA:5937,0
DA:5940,0
DA:5958,0
DA:5960,0
DA:5961,0
DA:5962,0
DA:5964,0
DA:6048,1
DA:6049,1
DA:6052,0
DA:6053,0
DA:6059,4
DA:6060,4
DA:6061,4
DA:6257,0
DA:6258,0
DA:6259,0
DA:6284,0
DA:6285,0
DA:6286,0
DA:6287,0
DA:6288,0
DA:7476,0
DA:7477,0
DA:7478,0
DA:7490,2
DA:7491,2
DA:7492,2
DA:7495,0
DA:7496,0
DA:7573,0
DA:7574,0
DA:7862,0
DA:7863,0
DA:7871,0
DA:7872,0
DA:7873,0
DA:7874,0
DA:7875,0
DA:7876,0
DA:7878,0
DA:7879,0
DA:7882,0
DA:7883,0
DA:7884,0
DA:7885,0
DA:7888,0
DA:7889,0
DA:7890,0
DA:7891,0
DA:7892,0
DA:7894,0
DA:7897,0
DA:7898,0
DA:7901,0
DA:7902,0
DA:7905,0
DA:7906,0
DA:7908,0
DA:7909,0
DA:7912,0
DA:7913,0
DA:7918,0
DA:7919,0
DA:7921,0
DA:7922,0
DA:7926,0
DA:7927,0
DA:8017,1
DA:8018,1
DA:8019,1
DA:8020,1
DA:8021,1
DA:8023,1
DA:8024,1
DA:8025,1
DA:8026,1
DA:8027,1
DA:8034,1
DA:8035,1
DA:8036,1
DA:8037,1
DA:8038,1
DA:8039,1
DA:8040,1
DA:8183,0
DA:8184,0
DA:8185,0
DA:8189,0
DA:8190,0
DA:8191,0
DA:8193,0
DA:8195,0
DA:8196,0
DA:8199,0
DA:8200,0
DA:8201,0
DA:8203,0
DA:8204,0
DA:8205,0
DA:8207,0
DA:8210,0
DA:8212,0
DA:8215,1
DA:8219,1
DA:8220,1
DA:8221,1
DA:8222,1
DA:8224,1
DA:8225,1
DA:8226,1
DA:8227,0
DA:8228,0
DA:8229,0
DA:8231,0
DA:8232,0
DA:8235,1
DA:8236,1
DA:8237,1
DA:8243,0
DA:8245,1
DA:8247,0
DA:8252,1
DA:8253,1
DA:8254,1
DA:8255,1
DA:8257,0
DA:8258,0
DA:8259,0
DA:8261,0
DA:8262,0
DA:8263,0
DA:8264,0
DA:8265,0
DA:8266,0
DA:8268,0
DA:8269,0
DA:8270,0
DA:8272,0
DA:8273,0
DA:8274,0
DA:8278,0
DA:8279,0
DA:8280,0
DA:8287,0
DA:8288,0
DA:8289,0
DA:8291,0
DA:8293,0
DA:8294,0
DA:8295,0
DA:8296,0
DA:8297,0
DA:8298,0
DA:8300,0
DA:8303,0
DA:8304,0
DA:8305,0
DA:8306,0
DA:8309,0
DA:8310,0
DA:8314,0
DA:8315,0
DA:8318,0
DA:8319,0
DA:8322,0
DA:8323,0
DA:8326,0
DA:8327,0
DA:8330,0
DA:8332,0
DA:8333,0
DA:8334,0
DA:8336,0
DA:8337,0
DA:8338,0
DA:8340,0
DA:8341,0
DA:8343,0
DA:8344,0
DA:8345,0
DA:8346,0
DA:8348,0
DA:8349,0
DA:8350,0
DA:8351,0
DA:8352,0
DA:8354,0
DA:8355,0
DA:8357,0
DA:8358,0
DA:8361,0
DA:8362,0
DA:8363,0
DA:8365,0
DA:8366,0
DA:8368,0
DA:8369,0
DA:8371,0
DA:8372,0
DA:8375,0
DA:8376,0
DA:8390,0
DA:8391,0
DA:8392,0
DA:8393,0
DA:8394,0
DA:8471,0
DA:8472,0
DA:8473,0
DA:8475,0
DA:8476,0
DA:8477,0
DA:8479,0
DA:8480,0
DA:8481,0
DA:8504,0
DA:8505,0
DA:8506,0
DA:8508,0
DA:8510,0
DA:8511,0
DA:8512,0
DA:8514,0
DA:8515,0
DA:8516,0
DA:8517,0
DA:8520,0
DA:8521,0
DA:8523,0
DA:8524,0
DA:8525,0
DA:8526,0
DA:8527,0
DA:8529,0
DA:8530,0
DA:8532,0
DA:8533,0
DA:8535,0
DA:8536,0
DA:8537,0
DA:8538,0
DA:8539,0
DA:8541,0
DA:8542,0
DA:8544,0
DA:8545,0
DA:8548,0
DA:8550,0
DA:8551,0
DA:8552,0
DA:8555,0
DA:8556,0
DA:8566,0
DA:8567,0
DA:8568,0
DA:8569,0
DA:8570,0
DA:8571,0
DA:8572,0
DA:8574,0
DA:8575,0
DA:8576,0
DA:8577,0
DA:8580,0
DA:8581,0
DA:8582,0
DA:8583,0
DA:8585,0
DA:8586,0
DA:8588,0
DA:8589,0
DA:8590,0
DA:8592,0
DA:8593,0
DA:8594,0
DA:8602,0
DA:8604,0
DA:8605,0
DA:8606,0
DA:8608,0
DA:8609,0
DA:8614,0
DA:8616,0
DA:8617,0
DA:8618,0
DA:8619,0
DA:8621,0
DA:8622,0
DA:8623,0
DA:8625,0
DA:8626,0
DA:8627,0
DA:8630,0
DA:8631,0
DA:8632,0
DA:8634,0
DA:8635,0
DA:8636,0
DA:8637,0
DA:8638,0
DA:8640,0
DA:8641,0
DA:8642,0
DA:8643,0
DA:8658,0
DA:8659,0
DA:8660,0
DA:8676,0
DA:8677,0
DA:8678,0
DA:8679,0
DA:8681,0
DA:8682,0
DA:8683,0
DA:8692,0
DA:8693,0
DA:8694,0
DA:8695,0
DA:8697,0
DA:8698,0
DA:8699,0
DA:8704,0
DA:8705,0
DA:8707,0
DA:8708,0
DA:8710,0
DA:8711,0
DA:8712,0
DA:8713,0
DA:8714,0
DA:8715,0
DA:8716,0
DA:8718,0
DA:8719,0
DA:8720,0
DA:8723,0
DA:8724,0
DA:8725,0
DA:8726,0
DA:8727,0
DA:8728,0
DA:8730,0
DA:8740,0
DA:8741,0
DA:8743,0
DA:8744,0
DA:8745,0
DA:8747,0
DA:8748,0
DA:8749,0
DA:8750,0
DA:8751,0
DA:8753,0
DA:8755,0
DA:8756,0
DA:8757,0
DA:8758,0
DA:8760,0
DA:8761,0
DA:8762,0
DA:8763,0
DA:8773,0
DA:8774,0
DA:8775,0
DA:8776,0
DA:8777,0
DA:8778,0
DA:8825,1
DA:8826,1
DA:8827,1
DA:8834,1
DA:8835,1
DA:8849,0
DA:8850,0
DA:8864,1
DA:8865,1
DA:8868,1
DA:8869,0
DA:8871,1
DA:8872,0
DA:8873,0
DA:8874,0
DA:8875,0
DA:8876,0
DA:8877,0
DA:8879,0
DA:8880,0
DA:8881,0
DA:8882,0
DA:8883,0
DA:8885,0
DA:8886,0
DA:8890,0
DA:8893,1
DA:8896,1
DA:8898,1
DA:8899,1
DA:8900,1
DA:8902,1
DA:8903,1
DA:8908,0
DA:8909,0
DA:8910,0
DA:8913,0
DA:8914,0
DA:8915,0
DA:8918,0
DA:8919,0
DA:8920,0
DA:8922,0
DA:8923,0
DA:8924,0
DA:8926,0
DA:8937,2
DA:8938,3
DA:8948,1
DA:8949,1
DA:8950,1
DA:8954,0
DA:8956,1
DA:8957,1
DA:8958,1
DA:8959,1
DA:8961,2
DA:8962,2
DA:8963,2
DA:8965,0
DA:8966,0
DA:8967,0
DA:8968,0
DA:8969,0
DA:8970,0
DA:8971,0
DA:8974,3
DA:8975,3
DA:8976,3
DA:8977,6
DA:8994,0
DA:8996,0
DA:8998,0
DA:8999,0
DA:9002,2
DA:9003,0
DA:9004,0
DA:9005,0
DA:9007,1
DA:9008,0
DA:9009,0
DA:9012,1
DA:9016,1
DA:9017,1
DA:9018,1
DA:9019,0
DA:9020,1
DA:9024,0
DA:9026,0
DA:9028,0
DA:9029,0
DA:9042,1
DA:9043,1
DA:9044,1
DA:9045,1
DA:9047,0
DA:9048,1
DA:9065,0
DA:9066,0
DA:9067,0
DA:9068,0
DA:9069,0
DA:9070,0
DA:9072,0
DA:9073,0
DA:9074,1
DA:9075,1
DA:9076,2
DA:9078,0
DA:9079,0
DA:9080,0
DA:9081,0
DA:9082,0
DA:9083,0
DA:9084,0
DA:9086,0
DA:9087,0
DA:9088,0
DA:9109,33
DA:9110,0
DA:9111,0
DA:9118,0
DA:9125,8
DA:9127,1
DA:9128,1
DA:9136,2
DA:9138,0
DA:9140,0
DA:9141,0
DA:9142,0
DA:9143,0
DA:9144,0
DA:9145,0
DA:9146,0
DA:9152,11
DA:9154,0
DA:9155,0
DA:9156,0
DA:9165,0
DA:9166,0
DA:9173,0
DA:9174,0
DA:9175,0
DA:9180,0
DA:9181,0
DA:9182,0
DA:9183,0
DA:9185,0
DA:9186,0
DA:9193,10
DA:9195,0
DA:9196,0
DA:9207,2
DA:9209,0
DA:9210,0
DA:9220,1690
DA:9221,0
DA:9223,0
DA:9225,1
DA:9226,2
DA:9249,13
DA:9253,9
DA:9254,9
DA:9255,18
DA:9256,9
DA:9259,10
DA:9260,10
DA:9261,20
DA:9262,10
DA:9264,32
DA:9265,32
DA:9266,32
DA:9269,1
DA:9270,1
DA:9271,1
DA:9279,0
DA:9280,0
DA:9283,0
DA:9284,0
DA:9285,0
DA:9287,0
DA:9290,0
DA:9303,3
DA:9305,1
DA:9306,1
DA:9307,1
DA:9315,0
DA:9316,0
DA:9319,0
DA:9320,1
DA:9322,1
DA:9325,1
DA:9327,1
DA:9328,1
DA:9329,1
DA:9331,0
DA:9332,1
DA:9339,0
DA:9340,0
DA:9341,0
DA:9342,0
DA:9344,0
DA:9345,0
DA:9346,0
DA:9347,0
DA:9349,0
DA:9350,0
DA:9352,0
DA:9353,0
DA:9354,0
DA:9356,0
DA:9357,0
DA:9360,0
DA:9366,0
DA:9375,2
DA:9377,11
DA:9380,10
DA:9383,8
DA:9385,51
DA:9386,51
DA:9387,51
DA:9390,0
DA:9391,0
DA:9392,0
DA:9393,0
DA:9394,0
DA:9395,0
DA:9397,0
DA:9398,0
DA:9400,0
DA:9401,0
DA:9402,0
DA:9403,0
DA:9405,0
DA:9406,0
DA:9407,0
DA:9408,0
DA:9409,0
DA:9411,0
DA:9412,0
DA:9416,0
DA:9417,0
DA:9418,0
DA:9419,0
DA:9421,0
DA:9422,0
DA:9423,0
DA:9424,0
DA:9425,0
DA:9426,0
DA:9427,0
DA:9428,0
DA:9429,0
DA:9430,0
DA:9431,0
DA:9432,0
DA:9433,0
DA:9434,0
DA:9435,0
DA:9436,0
DA:9437,0
DA:9438,0
DA:9439,0
DA:9440,0
DA:9441,0
DA:9442,0
DA:9443,0
DA:9444,0
DA:9445,0
DA:9446,0
DA:9448,0
DA:9449,0
DA:9450,0
DA:9452,0
DA:9453,0
DA:9454,0
DA:9455,0
DA:9456,0
DA:9457,0
DA:9462,0
DA:9463,0
DA:9466,0
DA:9471,1
DA:9472,1
DA:9473,0
DA:9474,0
DA:9475,1
DA:9478,2
DA:9479,2
DA:9480,1
DA:9481,1
DA:9490,1
DA:9491,1
DA:9492,1
DA:9495,1
DA:9496,1
DA:9497,1
DA:9500,31
DA:9501,31
DA:9502,31
DA:9512,33
DA:9513,66
DA:9522,0
DA:9523,0
DA:9524,0
DA:9525,0
DA:9526,0
DA:9527,0
DA:9528,0
DA:9529,0
DA:9531,0
DA:9532,0
DA:9533,0
DA:9534,0
DA:9535,0
DA:9536,0
DA:9537,0
DA:9539,0
DA:9540,0
DA:9541,0
DA:9542,0
DA:9544,0
DA:9545,0
DA:9546,0
DA:9548,0
DA:9549,0
DA:9550,0
DA:9551,0
DA:9552,0
DA:9555,0
DA:9556,0
DA:9557,0
DA:9558,0
DA:9559,0
DA:9561,0
DA:9563,0
DA:9565,0
DA:9566,0
DA:9567,0
DA:9568,0
DA:9569,0
DA:9570,0
DA:9572,0
DA:9573,0
DA:9574,0
DA:9577,0
DA:9578,0
DA:9579,0
DA:9580,0
DA:9581,0
DA:9582,0
DA:9583,0
DA:9584,0
DA:9585,0
DA:9586,0
DA:9587,0
DA:9588,0
DA:9593,1
DA:9599,1
DA:9600,1
DA:9602,1
DA:9605,1
DA:9606,32
DA:9607,2
DA:9610,1
DA:9612,1
DA:9613,1
DA:9614,0
DA:9616,0
DA:9617,0
DA:9618,0
DA:9619,0
DA:9620,0
DA:9621,0
DA:9622,0
DA:9623,0
DA:9624,0
DA:9625,0
DA:9630,0
DA:9631,0
DA:9632,0
DA:9633,0
DA:9636,1
DA:9637,1
DA:9642,1
DA:9643,1
DA:9697,1
DA:9701,0
DA:9702,0
DA:9703,0
DA:9704,0
DA:9706,0
DA:9707,0
DA:9709,0
DA:9710,0
DA:9712,0
DA:9713,0
DA:9714,0
DA:9715,0
DA:9716,1
DA:9717,0
DA:9718,0
DA:9719,0
DA:9720,0
DA:9722,0
DA:9723,0
DA:9724,0
DA:9725,0
DA:9726,0
DA:9727,0
DA:9728,0
DA:9729,0
DA:9733,0
DA:9734,0
DA:9736,0
DA:9737,0
DA:9738,0
DA:9739,0
DA:9740,0
DA:9741,0
DA:9742,0
DA:9743,0
DA:9744,0
DA:9746,0
DA:9747,0
DA:9748,1
DA:9749,0
DA:9750,0
DA:9751,0
DA:9752,0
DA:9753,0
DA:9754,1
DA:9755,0
DA:9756,0
DA:9758,0
DA:9759,0
DA:9760,0
DA:9761,0
DA:9762,0
DA:9763,0
DA:9765,0
DA:9766,0
DA:9767,0
DA:9768,0
DA:9769,0
DA:9770,0
DA:9771,0
DA:9772,0
DA:9773,0
DA:9774,0
DA:9775,0
DA:9776,0
DA:9777,0
DA:9779,0
DA:9780,0
DA:9781,0
DA:9782,0
DA:9783,0
DA:9784,0
DA:9785,0
DA:9786,0
DA:9787,0
DA:9788,0
DA:9789,0
DA:9791,0
DA:9792,0
DA:9793,0
DA:9794,0
DA:9795,0
DA:9797,0
DA:9798,0
DA:9800,0
DA:9801,0
DA:9803,0
DA:9804,0
DA:9805,0
DA:9808,2
DA:9809,3
DA:9810,3
DA:9811,2
DA:9812,2
DA:9813,3
DA:9814,2
DA:9815,2
DA:9816,3
DA:9817,2
DA:9818,2
DA:9819,3
DA:9820,2
DA:9821,2
DA:9822,3
DA:9823,2
DA:9824,2
DA:9825,3
DA:9826,2
DA:9827,2
DA:9828,4
DA:9829,2
DA:9830,2
DA:9831,4
DA:9832,2
DA:9833,2
DA:9834,4
DA:9835,2
DA:9836,2
DA:9837,3
DA:9838,2
DA:9839,2
DA:9840,4
DA:9841,2
DA:9842,2
DA:9843,4
DA:9844,2
DA:9845,2
DA:9846,4
DA:9847,2
DA:9848,2
DA:9849,4
DA:9850,2
DA:9851,2
DA:9852,4
DA:9853,2
DA:9854,2
DA:9855,3
DA:9856,2
DA:9857,2
DA:9858,4
DA:9859,2
DA:9860,2
DA:9861,4
DA:9862,2
DA:9863,2
DA:9864,3
DA:9865,2
DA:9866,2
DA:9867,3
DA:9868,2
DA:9869,2
DA:9870,4
DA:9871,2
DA:9872,2
DA:9873,4
DA:9874,2
DA:9875,2
DA:9876,4
DA:9877,2
DA:9878,2
DA:9879,3
DA:9880,2
DA:9881,2
DA:9882,4
DA:9883,2
DA:9884,2
DA:9885,4
DA:9886,2
DA:9887,2
DA:9888,4
DA:9889,2
DA:9890,2
DA:9891,4
DA:9892,2
DA:9893,2
DA:9894,3
DA:9895,2
DA:9896,2
DA:9897,4
DA:9898,2
DA:9899,2
DA:9900,2
DA:9901,3
DA:9903,2
DA:9915,0
DA:9916,0
DA:9918,0
DA:9921,0
DA:9924,0
DA:9928,0
DA:9930,0
DA:9933,0
DA:9934,0
DA:9937,5
DA:9938,5
DA:9946,1
DA:9947,1
DA:9948,1
DA:9954,1
DA:9955,0
DA:9957,1
DA:9958,0
DA:9961,1
DA:9962,1
DA:9963,0
DA:9964,0
DA:9965,0
DA:9968,1
DA:9969,1
DA:9971,0
DA:9972,0
DA:9975,1
DA:9976,1
DA:9977,1
DA:9978,1
DA:9980,0
DA:9981,1
DA:9983,0
DA:9984,1
DA:9986,4
DA:9987,0
DA:9989,0
DA:9992,0
DA:9993,9
DA:9994,3
DA:9995,1
DA:9996,0
DA:9997,1
DA:9998,2
DA:9999,1
DA:10000,3
DA:10001,2
DA:10002,1
DA:10003,0
DA:10004,4
DA:10005,0
DA:10006,1
DA:10008,1
DA:10009,0
DA:10010,0
DA:10011,0
DA:10012,0
DA:10014,1
DA:10015,1
DA:10078,1
DA:10083,0
DA:10085,0
DA:10086,0
DA:10087,0
DA:10180,8
DA:10181,8
DA:10182,4
DA:10183,4
DA:10184,0
DA:10185,0
DA:10186,0
DA:10187,0
DA:10188,0
DA:10189,0
DA:10191,0
DA:10192,1
DA:10193,2
DA:10194,0
DA:10195,1
DA:10197,0
DA:10198,0
DA:10201,1
DA:10202,1
DA:10203,1
DA:10207,8
DA:10208,8
DA:10209,8
DA:10210,8
DA:10213,1
DA:10219,1
DA:10225,1
DA:10226,1
DA:10227,1
DA:10229,1
DA:10230,1
DA:10231,1
DA:10232,2
DA:10233,1
DA:10236,1
DA:10237,1
DA:10238,1
DA:10255,4
DA:10256,0
DA:10257,0
DA:10258,0
DA:10259,0
DA:10260,0
DA:10261,0
DA:10262,0
DA:10263,0
DA:10266,4
DA:10268,8
DA:10269,8
DA:10274,8
DA:10275,8
DA:10277,8
DA:10279,4
DA:10280,4
DA:10297,1
DA:10298,1
DA:10300,0
DA:10301,0
DA:10304,9
DA:10305,9
DA:10311,1
DA:10312,1
DA:10313,1
DA:10314,1
DA:10315,1
DA:10316,1
DA:10317,2
DA:10318,2
DA:10319,2
DA:10331,1
DA:10333,1
DA:10334,1
DA:10336,2
DA:10337,2
DA:10338,2
DA:10339,2
DA:10340,1
DA:10341,1
DA:10342,2
DA:10344,0
DA:10345,0
DA:10346,0
DA:10382,0
DA:10384,0
DA:10385,0
DA:10463,0
DA:10466,0
DA:10467,0
DA:10468,0
DA:10470,0
DA:10474,0
DA:10476,0
DA:10478,0
DA:10479,0
DA:10505,1
DA:10507,0
DA:10508,0
DA:10509,0
DA:10510,0
DA:10511,0
DA:10513,0
DA:10514,0
DA:10532,0
DA:10533,0
DA:10537,0
DA:10538,0
DA:10542,0
DA:10543,0
DA:10580,1
DA:10587,0
DA:10589,0
DA:10590,0
DA:10591,0
DA:10593,0
DA:10597,0
DA:10598,0
DA:10599,0
DA:10600,0
DA:10601,0
DA:10602,0
DA:10604,0
DA:10605,0
DA:10607,0
DA:10609,0
DA:10610,0
DA:10611,0
DA:10612,0
DA:10614,0
DA:10617,0
DA:10618,0
DA:10619,0
DA:10620,0
DA:10622,0
DA:10623,0
DA:10624,0
DA:10625,0
DA:10626,0
DA:10628,0
DA:10629,0
DA:10631,0
DA:10632,0
DA:10633,0
DA:10645,1
DA:10646,1
DA:10678,1
DA:10679,1
DA:10681,0
DA:10682,0
DA:10683,0
DA:10686,0
DA:10705,0
DA:10706,0
DA:10708,0
DA:10711,0
DA:10712,0
DA:10713,0
DA:10714,0
DA:10715,0
DA:10716,0
DA:10717,0
DA:10718,0
DA:10719,0
DA:10720,0
DA:10721,0
DA:10722,0
DA:10723,0
DA:10724,0
DA:10725,0
DA:10728,0
DA:10729,0
DA:10730,0
DA:10732,0
DA:10775,0
DA:10776,0
DA:10777,0
DA:10888,1
DA:10893,7
DA:10894,6
DA:10897,1
DA:10898,1
DA:10900,0
DA:10901,0
DA:10902,0
DA:10903,0
DA:10904,0
DA:10905,0
DA:10911,0
DA:10912,0
DA:10913,0
DA:10914,0
DA:10916,1
DA:10917,1
DA:10918,1
DA:10919,1
DA:10921,32769
DA:10922,1
DA:10924,1
DA:10925,1
DA:10928,1
DA:10929,1
DA:10931,1
DA:10933,1
DA:10934,1
DA:10935,1
DA:10936,1
DA:10937,1
DA:10939,1
DA:10940,1
DA:10941,7
DA:10942,6
DA:10944,1
DA:10950,1
DA:10951,1
DA:10952,1
DA:10965,0
DA:10967,0
DA:10968,0
DA:10973,0
DA:10975,0
DA:10976,0
DA:10985,1
DA:10991,1
DA:10997,0
DA:10998,1
DA:11004,1
DA:11005,1
DA:11066,1
DA:11067,1
DA:11069,0
DA:11070,0
DA:11072,2
DA:11073,2
DA:11075,1
DA:11077,2
DA:11079,2
DA:11080,2
DA:11081,2
DA:11082,2
DA:11083,2
DA:11085,0
DA:11087,0
DA:11088,0
DA:11089,0
DA:11090,0
DA:11092,0
DA:11094,0
DA:11097,0
DA:11098,0
DA:11099,0
DA:11101,0
DA:11102,0
DA:11103,0
DA:11105,0
DA:11107,1
DA:11110,1
DA:11111,1
DA:11112,1
DA:11113,1
DA:11114,1
DA:11115,1
DA:11117,1
DA:11119,1
DA:11123,1
DA:11124,1
DA:11125,1
DA:11126,1
DA:11127,1
DA:11128,1
DA:11129,1
DA:11131,1
DA:11133,1
DA:11135,1
DA:11136,1
DA:11137,1
DA:11138,1
DA:11139,1
DA:11141,0
DA:11142,0
DA:11143,0
DA:11144,0
DA:11146,1
DA:11148,1
DA:11150,1
DA:11151,1
DA:11152,1
DA:11153,1
DA:11154,1
DA:11156,1
DA:11158,0
DA:11159,0
DA:11161,4
DA:11162,1
DA:11169,1
DA:11175,1
DA:11176,1
DA:11200,1
DA:11204,1
DA:11205,1
DA:11206,1
DA:11250,0
DA:11251,0
DA:11252,0
DA:11253,0
DA:11255,0
DA:11258,0
DA:11259,0
DA:11260,0
DA:11261,0
DA:11262,0
DA:11263,0
DA:11265,0
DA:11266,0
DA:11267,0
DA:11268,0
DA:11269,0
DA:11270,0
DA:11271,0
DA:11272,0
DA:11273,0
DA:11274,0
DA:11275,0
DA:11277,0
DA:11278,0
DA:11280,0
DA:11281,0
DA:11282,0
DA:11284,0
DA:11285,0
DA:11286,0
DA:11287,0
DA:11288,0
DA:11289,0
DA:11290,0
DA:11291,0
DA:11293,0
DA:11294,0
DA:11295,0
DA:11296,0
DA:11298,0
DA:11299,0
DA:11301,0
DA:11302,0
DA:11303,0
DA:11304,0
DA:11306,0
DA:11307,0
DA:11308,0
DA:11310,0
DA:11313,0
DA:11314,0
DA:11315,0
DA:11316,0
DA:11317,0
DA:11319,0
DA:11320,0
DA:11322,0
DA:11323,0
DA:11324,0
DA:11325,0
DA:11327,0
DA:11330,0
DA:11332,0
DA:11333,0
DA:11334,0
DA:11335,0
DA:11336,0
DA:11337,0
DA:11338,0
DA:11339,0
DA:11340,0
DA:11343,0
DA:11344,0
DA:11345,0
DA:11346,0
DA:11347,0
DA:11348,0
DA:11349,0
DA:11350,0
DA:11351,0
DA:11352,0
DA:11353,0
DA:11354,0
DA:11355,0
DA:11357,0
DA:11358,0
DA:11359,0
DA:11360,0
DA:11361,0
DA:11362,0
DA:11364,0
DA:11366,0
DA:11367,0
DA:11368,0
DA:11369,0
DA:11370,0
DA:11371,0
DA:11372,0
DA:11373,0
DA:11375,0
DA:11376,0
DA:11379,1
DA:11380,1
DA:11381,1
DA:11382,1
DA:11383,0
DA:11384,1
DA:11385,0
DA:11386,1
DA:11387,0
DA:11388,1
DA:11389,0
DA:11390,1
DA:11391,0
DA:11401,0
DA:11402,0
DA:11403,0
DA:11404,0
DA:11407,0
DA:11423,0
DA:11424,0
DA:11427,0
DA:11428,0
DA:11432,0
DA:11433,0
DA:11481,0
DA:11484,0
DA:11485,0
DA:11488,0
DA:11491,0
DA:11492,0
DA:11496,0
DA:11499,0
DA:11500,0
DA:11503,0
DA:11504,0
DA:11506,0
DA:11508,0
DA:11512,0
DA:11513,0
DA:11518,0
DA:11519,0
DA:11522,0
DA:11523,0
DA:11529,0
DA:11530,0
DA:11532,0
DA:11537,0
DA:11542,0
DA:11543,0
DA:11547,0
DA:11548,0
DA:11549,0
DA:11550,0
DA:11551,0
DA:11563,0
DA:11564,0
DA:11565,0
DA:11567,0
DA:11571,0
DA:11572,0
DA:11575,0
DA:11576,0
DA:11579,0
DA:11580,0
DA:11581,0
DA:11584,0
DA:11592,0
DA:11593,0
DA:11594,0
DA:11595,0
DA:11596,0
DA:11597,0
DA:11598,0
DA:11599,0
DA:11607,0
DA:11608,0
DA:11610,0
DA:11612,0
DA:11613,0
DA:11614,0
DA:11616,0
DA:11619,0
DA:11620,0
DA:11621,0
DA:11622,0
DA:11623,0
DA:11626,0
DA:11627,0
DA:11628,0
DA:11630,0
DA:11632,0
DA:11633,0
DA:11635,0
DA:11636,0
DA:11637,0
DA:11638,0
DA:11639,0
DA:11640,0
DA:11642,0
DA:11643,0
DA:11644,0
DA:11645,0
DA:11648,0
DA:11649,0
DA:11650,0
DA:11651,0
DA:11652,0
DA:11656,0
DA:11657,0
DA:11660,0
DA:11661,0
DA:11664,0
DA:11665,0
DA:11668,0
DA:11669,0
DA:11672,0
DA:11673,0
DA:11676,0
DA:11677,0
DA:11680,0
DA:11681,0
DA:11689,0
DA:11690,0
DA:11691,0
DA:11693,0
DA:11706,0
DA:11707,0
DA:11708,0
DA:11709,0
DA:11710,0
DA:11711,0
DA:11713,0
DA:11715,0
DA:11716,0
DA:11718,0
DA:11721,0
DA:11722,0
DA:11723,0
DA:11724,0
DA:11726,0
DA:11727,0
DA:11728,0
DA:11729,0
DA:11730,0
DA:11731,0
DA:11732,0
DA:11733,0
DA:11734,0
DA:11735,0
DA:11736,0
DA:11738,0
DA:11740,0
DA:11741,0
DA:11744,0
DA:11746,0
DA:11747,0
DA:11750,0
DA:11752,0
DA:11753,0
DA:11756,0
DA:11758,0
DA:11759,0
DA:11762,0
DA:11764,0
DA:11765,0
DA:11766,0
DA:11767,0
DA:11769,0
DA:11770,0
DA:11771,0
DA:11773,0
DA:11774,0
DA:11779,0
DA:11780,0
DA:11782,0
DA:11783,0
DA:11785,0
DA:11786,0
DA:11788,0
DA:11789,0
DA:11792,0
DA:11793,0
DA:11813,0
DA:11815,0
DA:11816,0
DA:11817,0
DA:11818,0
DA:11819,0
DA:11820,0
DA:11822,0
DA:11823,0
DA:11826,0
DA:11827,0
DA:11835,0
DA:11837,0
DA:11838,0
DA:11842,0
DA:11843,0
DA:11845,0
DA:11846,0
DA:11847,0
DA:11849,0
DA:11850,0
DA:11852,0
DA:11853,0
DA:11855,0
DA:11856,0
DA:11857,0
DA:11859,0
DA:11861,0
DA:11862,0
DA:11863,0
DA:11864,0
DA:11866,0
DA:11867,0
DA:11869,0
DA:11870,0
DA:11871,0
DA:11872,0
DA:11873,0
DA:11874,0
DA:11875,0
DA:11876,0
DA:11878,0
DA:11879,0
DA:11881,0
DA:11882,0
DA:11883,0
DA:11884,0
DA:11885,0
DA:11886,0
DA:11892,0
DA:11893,0
DA:11894,0
DA:11898,0
DA:11899,0
DA:11900,0
DA:11902,0
DA:11903,0
DA:11904,0
DA:11905,0
DA:11906,0
DA:11907,0
DA:11908,0
DA:11909,0
DA:11913,0
DA:11914,0
DA:11915,0
DA:11916,0
DA:11917,0
DA:11918,0
DA:11919,0
DA:11920,0
DA:11921,0
DA:11922,0
DA:11924,0
DA:11926,0
DA:11927,0
DA:11928,0
DA:11929,0
DA:11930,0
DA:11931,0
DA:12063,0
DA:12064,0
DA:12065,0
DA:12066,0
DA:12068,0
DA:12069,0
DA:12071,0
DA:12072,0
DA:12073,0
DA:12075,0
DA:12076,0
DA:12078,0
DA:12079,0
DA:12080,0
DA:12081,0
DA:12082,0
DA:12084,0
DA:12085,0
DA:12086,0
DA:12087,0
DA:12089,0
DA:12090,0
DA:12091,0
DA:12092,0
DA:12187,0
DA:12188,0
DA:12190,0
DA:12191,0
DA:12216,0
DA:12217,0
DA:12218,0
DA:12219,0
DA:12228,0
DA:12229,0
DA:12230,0
DA:12232,0
DA:12233,0
DA:12234,0
DA:12235,0
DA:12236,0
DA:12237,0
DA:12239,0
DA:12242,0
DA:12243,0
DA:12245,0
DA:12247,0
DA:12249,0
DA:12250,0
DA:12253,0
DA:12255,0
DA:12258,0
DA:12259,0
DA:12262,0
DA:12263,0
DA:12293,1
DA:12422,10
DA:12424,10
DA:12425,1
DA:12426,1
DA:12428,10
DA:12432,5
DA:12433,5
DA:12435,5
DA:12436,5
DA:12451,1
DA:12452,2
DA:12453,2
DA:12455,1
DA:12456,1
DA:12458,0
DA:12459,0
DA:12461,1
DA:12462,1
DA:12464,1
DA:12465,1
DA:12469,4
DA:12470,4
DA:12471,4
DA:12472,0
DA:12473,0
DA:12474,0
DA:12475,1
DA:12476,1
DA:12477,1
DA:12478,0
DA:12479,0
DA:12480,0
DA:12481,0
DA:12482,0
DA:12483,0
DA:12484,0
DA:12486,0
DA:12490,0
DA:12491,0
DA:12492,0
DA:12507,5
DA:12508,5
DA:12510,5
DA:12511,5
DA:12513,2
DA:12514,2
DA:12515,2
DA:12516,2
DA:12517,0
DA:12518,0
DA:12527,1
DA:12529,1
DA:12530,1
DA:12531,1
DA:12532,0
DA:12533,2
DA:12536,4
DA:12537,4
DA:12538,4
DA:12539,0
DA:12540,0
DA:12541,0
DA:12543,0
DA:12544,0
DA:12546,1
DA:12547,1
DA:12556,0
DA:12557,0
DA:12559,0
DA:12560,0
DA:12563,0
DA:12564,0
DA:12567,0
DA:12568,0
DA:12584,0
DA:12585,0
DA:12586,0
DA:12589,0
DA:12590,0
DA:12592,0
DA:12604,0
DA:12605,0
DA:12606,0
DA:12607,0
DA:12608,0
DA:12609,0
DA:12610,0
DA:12611,0
DA:12612,0
DA:12614,0
DA:12615,0
DA:12616,0
DA:12618,0
DA:12619,0
DA:12622,0
DA:12623,0
DA:12626,0
DA:12627,0
DA:12628,0
DA:12630,0
DA:12631,0
DA:12639,0
DA:12641,0
DA:12642,0
DA:12645,0
DA:12648,0
DA:12649,0
DA:12650,0
DA:12651,0
DA:12657,0
DA:12660,0
DA:12661,0
DA:12663,0
DA:12666,0
DA:12668,0
DA:12670,0
DA:12671,0
DA:12674,0
DA:12675,0
DA:12676,0
DA:12678,0
DA:12679,0
DA:12680,0
DA:12681,0
DA:12684,0
DA:12685,0
DA:12691,0
DA:12692,0
DA:12693,0
DA:12694,0
DA:12695,0
DA:12697,0
DA:12700,0
DA:12701,0
DA:12703,0
DA:12704,0
DA:12705,0
DA:12707,0
DA:12710,1
DA:12711,1
DA:12712,1
DA:12713,1
DA:12714,1
DA:12715,1
DA:12716,5
DA:12718,1
DA:12719,1
DA:12720,1
DA:12721,1
DA:12722,1
DA:12724,1
DA:12725,1
DA:12726,1
DA:12728,1
DA:12729,1
DA:12730,1
DA:12732,1
DA:12733,1
DA:12734,1
DA:12736,1
DA:12737,1
DA:12739,1
DA:12740,1
DA:12742,1
DA:12744,1
DA:12746,1
DA:12748,1
DA:12749,1
DA:12750,1
DA:12752,1
DA:12753,1
DA:12754,1
DA:12755,1
DA:12757,1
DA:12758,1
DA:12759,0
DA:12760,0
DA:12761,0
DA:12763,1
DA:12764,2
DA:12768,1
DA:12770,1
DA:12771,1
DA:12773,2
DA:12774,1
DA:12776,0
DA:12777,0
DA:12780,0
DA:12781,0
DA:12784,0
DA:12785,0
DA:12786,0
DA:12787,0
DA:12788,0
DA:12789,0
DA:12790,0
DA:12791,0
DA:12793,0
DA:12796,0
DA:12801,0
DA:12803,0
DA:12804,0
DA:12807,0
DA:12808,0
DA:12809,0
DA:12810,1
DA:12811,1
DA:12812,1
DA:12813,1
DA:12815,0
DA:12816,0
DA:12817,0
DA:12818,0
DA:12819,0
DA:12821,0
DA:12823,0
DA:12825,0
DA:12827,0
DA:12829,0
DA:12831,0
DA:12832,0
DA:12833,0
DA:12834,0
DA:12837,1
DA:12838,1
DA:12839,1
DA:12840,0
DA:12841,0
DA:12842,0
DA:12843,0
DA:12844,0
DA:12845,0
DA:12846,0
DA:12849,0
DA:12850,0
DA:12851,0
DA:12853,0
DA:12854,0
DA:12855,0
DA:12858,0
DA:12859,0
DA:12860,0
DA:12861,0
DA:12863,0
DA:12864,0
DA:12865,0
DA:12867,0
DA:12868,0
DA:12870,0
DA:12871,0
DA:12888,0
DA:12889,0
DA:12890,0
DA:12892,0
DA:12893,0
DA:12894,0
DA:12896,0
DA:12897,0
DA:12898,0
DA:12900,0
DA:12901,0
DA:12902,0
DA:12903,0
DA:12906,0
DA:12907,0
DA:12910,0
DA:12911,0
DA:12912,0
DA:12914,0
DA:12916,0
DA:12920,0
DA:12921,0
DA:12922,0
DA:12924,0
DA:12926,0
DA:12929,0
DA:12930,0
DA:12932,0
DA:12933,0
DA:12934,0
DA:12935,0
DA:12937,0
DA:12939,0
DA:12940,0
DA:12941,0
DA:12942,0
DA:12944,0
DA:12945,0
DA:12947,0
DA:12948,0
DA:12949,0
DA:12950,0
DA:12952,0
DA:12953,0
DA:12956,1
DA:12957,1
DA:12958,1
DA:12959,1
DA:12960,1
DA:12961,1
DA:12963,4
DA:12964,4
DA:12967,1
DA:12968,1
DA:12969,1
DA:12970,1
DA:12971,1
DA:12972,1
DA:12973,1
DA:12974,1
DA:12976,1
DA:12978,1
DA:12980,1
DA:12982,0
DA:12984,0
DA:12985,0
DA:12991,0
DA:12992,1
DA:12993,1
DA:12995,1
DA:12996,0
DA:12998,0
DA:13001,0
DA:13002,0
DA:13003,0
DA:13005,0
DA:13006,1
DA:13007,1
DA:13009,1
DA:13010,1
DA:13011,1
DA:13012,1
DA:13014,1
DA:13015,1
DA:13016,1
DA:13018,1
DA:13019,1
DA:13020,1
DA:13021,1
DA:13023,1
DA:13026,2
DA:13027,1
DA:13028,1
DA:13029,0
DA:13030,0
DA:13031,1
DA:13032,1
DA:13034,1
DA:13039,1
DA:13041,1
DA:13042,1
DA:13044,1
DA:13045,1
DA:13046,1
DA:13049,0
DA:13053,0
DA:13054,0
DA:13056,1
DA:13057,0
DA:13063,0
DA:13064,0
DA:13066,0
DA:13067,0
DA:13069,0
DA:13070,0
DA:13072,0
DA:13078,0
DA:13080,0
DA:13082,0
DA:13083,0
DA:13084,0
DA:13085,0
DA:13086,0
DA:13087,0
DA:13088,0
DA:13089,0
DA:13093,0
DA:13094,0
DA:13096,0
DA:13101,0
DA:13103,0
DA:13104,0
DA:13105,0
DA:13106,0
DA:13107,0
DA:13108,0
DA:13110,0
DA:13111,0
DA:13112,0
DA:13113,0
DA:13115,0
DA:13118,0
DA:13120,0
DA:13121,0
DA:13122,0
DA:13123,0
DA:13124,0
DA:13125,0
DA:13130,0
DA:13132,0
DA:13133,0
DA:13134,0
DA:13136,0
DA:13137,0
DA:13138,0
DA:13140,1
DA:13141,1
DA:13142,1
DA:13144,0
DA:13147,2
DA:13148,2
DA:13149,0
DA:13150,0
DA:13152,2
DA:13154,0
DA:13155,0
DA:13164,0
DA:13165,0
DA:13166,0
DA:13168,0
DA:13169,0
DA:13171,0
DA:13172,0
DA:13173,0
DA:13174,0
DA:13175,0
DA:13177,0
DA:13178,0
DA:13179,0
DA:13182,0
DA:13183,0
DA:13192,1
DA:13194,1
DA:13195,1
DA:13196,1
DA:13197,1
DA:13226,1
DA:13227,1
DA:13228,0
DA:13229,1
DA:13230,1
DA:13231,1
DA:13232,1
DA:13294,1
DA:13295,1
DA:13296,1
DA:13298,1
DA:13299,0
DA:13301,1
DA:13302,1
DA:13303,1
DA:13311,0
DA:13312,0
DA:13313,0
DA:13314,0
DA:13315,0
DA:13317,0
DA:13318,0
DA:13319,0
DA:13323,1
DA:13324,1
DA:13325,1
DA:13327,1
DA:13328,1
DA:13329,1
DA:13331,1
DA:13332,2
DA:13333,1
DA:13334,1
DA:13336,0
DA:13337,0
DA:13339,1
DA:13341,1
DA:13342,1
DA:13343,1
DA:13344,1
DA:13345,2
DA:13346,1
DA:13347,1
DA:13349,0
DA:13352,1
DA:13353,0
DA:13354,0
DA:13355,0
DA:13359,1
DA:13360,0
DA:13361,0
DA:13364,1
DA:13365,1
DA:13377,0
DA:13378,0
DA:13379,0
DA:13380,0
DA:13382,0
DA:13383,0
DA:13384,0
DA:13385,0
DA:13386,0
DA:13389,0
DA:13390,0
DA:13391,0
DA:13394,0
DA:13395,0
DA:13396,0
DA:13397,0
DA:13401,1
DA:13403,1
DA:13404,0
DA:13405,0
DA:13410,1
DA:13411,1
DA:13412,0
DA:13413,0
DA:13415,0
DA:13416,0
DA:13417,0
DA:13419,0
DA:13421,0
DA:13422,0
DA:13423,0
DA:13424,0
DA:13426,0
DA:13429,1
DA:13430,1
DA:13431,1
DA:13432,1
DA:13433,1
DA:13434,1
DA:13436,0
DA:13437,0
DA:13438,0
DA:13439,0
DA:13440,0
DA:13441,0
DA:13442,0
DA:13443,0
DA:13444,0
DA:13445,0
DA:13446,0
DA:13447,0
DA:13448,0
DA:13450,1
DA:13451,1
DA:13452,0
DA:13454,1
DA:13455,1
DA:13456,0
DA:13457,0
DA:13459,0
DA:13460,0
DA:13461,0
DA:13462,0
DA:13463,0
DA:13464,0
DA:13467,1
DA:13468,0
DA:13469,1
DA:13470,0
DA:13471,1
DA:13472,1
DA:13473,1
DA:13499,0
DA:13500,0
DA:13501,0
DA:13502,0
DA:13504,1
DA:13505,1
DA:13506,0
DA:13507,0
DA:13509,1
DA:13510,1
DA:13511,0
DA:13512,0
DA:13514,1
DA:13517,0
DA:13518,0
DA:13520,0
DA:13521,0
DA:13522,0
DA:13523,0
DA:13524,0
DA:13526,1
DA:13527,1
DA:13528,1
DA:13529,1
DA:13532,1
DA:13533,1
DA:13534,0
DA:13536,1
DA:13537,0
DA:13541,1
DA:13543,1
DA:13545,1
DA:13546,0
DA:13549,1
DA:13550,1
DA:13552,1
DA:13553,1
DA:13555,1
DA:13556,0
DA:13561,1
DA:13562,1
DA:13564,0
DA:13565,0
DA:13566,0
DA:13567,0
DA:13580,3
DA:13582,3
DA:13583,2
DA:13584,3
DA:13588,1
DA:13590,1
DA:13591,1
DA:13592,1
DA:13593,2
DA:13594,2
DA:13595,3
DA:13596,1
DA:13597,2
DA:13598,2
DA:13599,2
DA:13607,0
DA:13609,0
DA:13610,0
DA:13612,0
DA:13614,0
DA:13616,1
DA:13617,1
DA:13634,1
DA:13643,0
DA:13644,0
DA:13645,0
DA:13647,0
DA:13648,0
DA:13649,0
DA:13652,0
DA:13653,0
DA:13655,0
DA:13656,0
DA:13657,0
DA:13659,0
DA:13661,0
DA:13664,0
DA:13665,0
DA:13666,0
DA:13667,0
DA:13669,0
DA:13677,0
DA:13678,0
DA:13679,0
DA:13687,0
DA:13688,0
DA:13689,0
DA:13690,0
DA:13691,0
DA:13693,0
DA:13694,0
DA:13705,1
DA:13706,2
DA:13709,9
DA:13718,0
DA:13719,0
DA:13720,0
DA:13721,0
DA:13723,0
DA:13726,0
DA:13733,1
DA:13734,1
DA:13735,1
DA:13736,0
DA:13737,0
DA:13738,0
DA:13740,0
DA:13743,0
DA:13752,0
DA:13753,0
DA:13754,0
DA:13755,0
DA:13758,0
DA:13759,0
DA:13760,0
DA:13764,0
DA:13765,0
DA:13766,0
DA:13767,0
DA:13770,0
DA:13771,0
DA:13772,0
DA:13773,0
DA:13775,0
DA:13776,0
DA:13777,0
DA:13778,0
DA:13779,0
DA:13781,0
DA:13782,0
DA:13788,1
DA:13789,0
DA:13790,0
DA:13805,11
DA:13806,11
DA:13810,0
DA:13811,0
DA:13813,5
DA:13814,5
DA:13816,0
DA:13817,0
DA:13819,0
DA:13820,0
DA:13822,0
DA:13823,0
DA:13825,1
DA:13826,1
DA:13827,1
DA:13828,1
DA:13829,1
DA:13830,1
DA:13831,1
DA:13832,0
DA:13833,2
DA:13835,2
DA:13836,2
DA:13838,2
DA:13841,0
DA:13842,0
DA:13843,0
DA:13845,0
DA:13846,0
DA:13847,0
DA:13848,0
DA:13850,0
DA:13853,0
DA:13854,0
DA:13855,0
DA:13856,0
DA:13857,0
DA:13858,0
DA:13859,0
DA:13860,0
DA:13862,0
DA:13864,0
DA:13867,0
DA:13868,0
DA:13869,0
DA:13870,0
DA:13871,0
DA:13872,0
DA:13873,0
DA:13874,0
DA:13877,0
DA:13878,0
DA:13879,0
DA:13880,0
DA:13882,2
DA:13883,2
DA:13884,2
DA:13885,2
DA:13887,2
DA:13888,2
DA:13889,2
DA:13890,0
DA:13891,2
DA:13904,4
DA:13905,4
DA:13906,4
DA:13908,0
DA:13909,0
DA:13910,0
DA:13912,0
DA:13913,0
DA:13916,0
DA:13917,0
DA:13918,0
DA:13920,0
DA:13923,0
DA:13924,0
DA:13925,0
DA:13928,0
DA:13929,0
DA:13932,0
DA:13933,0
DA:13934,0
DA:13942,0
DA:13949,0
DA:13951,0
DA:13952,0
DA:13954,0
DA:13955,0
DA:13956,0
DA:13966,1
DA:13968,0
DA:13969,0
DA:13970,0
DA:13971,0
DA:13973,0
DA:13976,0
DA:13977,0
DA:13978,0
DA:13979,0
DA:13980,0
DA:13981,0
DA:13982,0
DA:13983,0
DA:13986,0
DA:13987,0
DA:13989,0
DA:13990,0
DA:13993,0
DA:13997,0
DA:13999,1
DA:14001,1
DA:14002,1
DA:14017,3
DA:14018,6
DA:14019,3
DA:14020,0
DA:14021,3
DA:14022,0
DA:14023,3
DA:14024,0
DA:14025,3
DA:14026,0
DA:14027,3
DA:14028,0
DA:14029,3
DA:14030,0
DA:14032,3
DA:14034,1
DA:14035,1
DA:14037,1
DA:14038,1
DA:14042,1
DA:14045,1
DA:14050,1
DA:14053,1
DA:14054,1
DA:14055,1
DA:14056,14
DA:14057,13
DA:14058,1
DA:14059,1
DA:14061,0
DA:14064,12
DA:14065,1
DA:14066,1
DA:14067,0
DA:14068,1
DA:14069,1
DA:14074,1
DA:14075,0
DA:14077,1
DA:14078,1
DA:14079,1
DA:14082,11
DA:14085,1
DA:14087,0
DA:14090,1
DA:14091,2
DA:14092,1
DA:14094,1
DA:14095,1
DA:14096,1
DA:14097,1
DA:14099,2
DA:14100,1
DA:14101,1
DA:14102,1
DA:14103,1
DA:14104,1
DA:14105,1
DA:14107,1
DA:14111,1
DA:14112,1
DA:14113,1
DA:14114,1
DA:14115,1
DA:14116,1
DA:14118,1
DA:14119,1
DA:14121,1
DA:14122,1
DA:14124,0
DA:14125,0
DA:14127,0
DA:14128,0
DA:14130,1
DA:14131,1
DA:14134,0
DA:14135,0
DA:14137,0
DA:14138,0
DA:14139,0
DA:14141,0
DA:14142,0
DA:14143,0
DA:14144,0
DA:14145,0
DA:14148,0
DA:14149,0
DA:14151,1
DA:14153,0
DA:14154,0
DA:14155,0
DA:14156,0
DA:14157,0
DA:14159,1
DA:14160,1
DA:14161,1
DA:14163,0
DA:14164,0
DA:14165,0
DA:14166,0
DA:14169,0
DA:14170,0
DA:14173,3
DA:14175,3
DA:14191,0
DA:14192,0
DA:14194,0
DA:14196,0
DA:14197,0
DA:14198,0
DA:14199,0
DA:14200,0
DA:14202,0
DA:14203,0
DA:14204,0
DA:14205,0
DA:14206,0
DA:14214,1
DA:14215,1
DA:14216,1
DA:14218,1
DA:14220,0
DA:14221,0
DA:14222,0
DA:14223,0
DA:14224,0
DA:14226,0
DA:14227,0
DA:14228,0
DA:14231,0
DA:14232,0
DA:14234,0
DA:14235,0
DA:14238,0
DA:14239,0
DA:14240,0
DA:14241,0
DA:14243,0
DA:14246,0
DA:14247,0
DA:14249,0
DA:14250,0
DA:14253,0
DA:14254,0
DA:14256,1
DA:14259,0
DA:14260,0
DA:14263,0
DA:14264,0
DA:14267,1
DA:14268,1
DA:14269,2
DA:14270,1
DA:14271,1
DA:14276,1
DA:14278,0
DA:14279,0
DA:14280,0
DA:14281,0
DA:14282,0
DA:14283,0
DA:14284,0
DA:14287,0
DA:14288,0
DA:14289,1
DA:14290,1
DA:14293,1
DA:14294,1
DA:14295,1
DA:14296,0
DA:14297,0
DA:14298,0
DA:14299,0
DA:14300,1
DA:14301,1
DA:14303,0
DA:14304,0
DA:14306,1
DA:14307,1
DA:14308,1
DA:14310,1
DA:14311,1
DA:14312,1
DA:14314,1
DA:14318,1
DA:14320,1
DA:14321,1
DA:14322,1
DA:14324,1
DA:14325,1
DA:14326,1
DA:14328,0
DA:14329,0
DA:14330,0
DA:14331,0
DA:14332,0
DA:14334,1
DA:14335,0
DA:14355,2
DA:14356,2
DA:14357,2
DA:14358,2
DA:14360,2
DA:14362,1
DA:14363,1
DA:14364,1
DA:14365,1
DA:14366,1
DA:14369,0
DA:14370,0
DA:14371,0
DA:14372,0
DA:14373,0
DA:14375,1
DA:14376,1
DA:14377,1
DA:14378,1
DA:14379,1
DA:14380,1
DA:14381,1
DA:14383,1
DA:14384,1
DA:14386,2
DA:14387,2
DA:14389,2
DA:14390,2
DA:14391,2
DA:14393,2
DA:14395,2
DA:14396,2
DA:14397,2
DA:14399,1
DA:14400,1
DA:14402,1
DA:14403,1
DA:14405,0
DA:14406,0
DA:14408,0
DA:14409,0
DA:14412,1
DA:14413,1
DA:14414,1
DA:14416,1
DA:14417,1
DA:14418,0
DA:14420,0
DA:14421,0
DA:14423,2
DA:14424,0
DA:14425,2
DA:14427,0
DA:14428,0
DA:14429,0
DA:14432,1
DA:14433,1
DA:14434,1
DA:14435,1
DA:14436,0
DA:14438,1
DA:14440,0
DA:14441,0
DA:14443,1
DA:14444,1
DA:14445,1
DA:14446,1
DA:14447,1
DA:14448,1
DA:14450,1
DA:14453,1
DA:14454,0
DA:14456,1
DA:14457,0
DA:14458,0
DA:14460,1
DA:14461,1
DA:14462,1
DA:14463,0
DA:14464,0
DA:14465,0
DA:14466,0
DA:14468,0
DA:14471,0
DA:14473,0
DA:14474,0
DA:14476,1
DA:14477,1
DA:14478,1
DA:14479,0
DA:14480,0
DA:14481,0
DA:14482,0
DA:14483,0
DA:14484,0
DA:14485,0
DA:14486,0
DA:14487,0
DA:14488,0
DA:14490,1
DA:14491,1
DA:14492,1
DA:14493,1
DA:14494,1
DA:14495,1
DA:14496,1
DA:14498,2
DA:14500,2
DA:14502,2
DA:14503,1
DA:14504,0
DA:14506,1
DA:14507,1
DA:14509,2
DA:14511,1
DA:14512,1
DA:14514,1
DA:14515,0
DA:14516,1
DA:14517,1
DA:14519,1
DA:14522,2
DA:14524,1
DA:14525,1
DA:14527,1
DA:14528,1
DA:14529,0
DA:14530,0
DA:14531,0
DA:14534,1
DA:14535,1
DA:14536,1
DA:14537,1
DA:14538,1
DA:14539,2
DA:14540,1
DA:14542,1
DA:14543,1
DA:14544,1
DA:14545,1
DA:14547,1
DA:14548,1
DA:14549,0
DA:14550,0
DA:14551,0
DA:14552,0
DA:14554,1
DA:14555,1
DA:14556,1
DA:14557,0
DA:14558,1
DA:14560,0
DA:14561,0
DA:14564,0
DA:14565,0
DA:14584,1
DA:14585,1
DA:14588,1
DA:14590,1
DA:14592,1
DA:14593,1
DA:14594,2
DA:14596,2
DA:14599,0
DA:14601,0
DA:14602,0
DA:14603,1
DA:14605,1
DA:14617,0
DA:14618,0
DA:14619,0
DA:14621,0
DA:14623,0
DA:14624,0
DA:14627,0
DA:14629,0
DA:14630,0
DA:14632,0
DA:14633,0
DA:14636,0
DA:14638,0
DA:14639,0
DA:14641,0
DA:14642,0
DA:14643,0
DA:14644,0
DA:14647,0
DA:14649,0
DA:14650,0
DA:14652,0
DA:14653,0
DA:14656,0
DA:14657,0
DA:14660,0
DA:14661,0
DA:14662,0
DA:14663,0
DA:14664,0
DA:14665,0
DA:14667,1
DA:14668,1
DA:14671,0
DA:14672,0
DA:14675,1
DA:14677,1
DA:14678,1
DA:14679,0
DA:14680,0
DA:14681,0
DA:14682,0
DA:14683,0
DA:14684,0
DA:14685,1
DA:14686,0
DA:14688,2
DA:14689,2
DA:14698,1
DA:14700,0
DA:14701,0
DA:14702,0
DA:14703,0
DA:14704,0
DA:14705,0
DA:14706,0
DA:14707,0
DA:14709,0
DA:14711,0
DA:14712,0
DA:14713,0
DA:14715,0
DA:14716,0
DA:14718,1
DA:14719,1
DA:14720,1
DA:14722,0
DA:14723,0
DA:14724,0
DA:14725,0
DA:14726,0
DA:14727,0
DA:14728,0
DA:14731,0
DA:14732,0
DA:14733,0
DA:14734,0
DA:14735,0
DA:14736,0
DA:14737,0
DA:14738,0
DA:14739,0
DA:14740,0
DA:14741,0
DA:14742,0
DA:14743,0
DA:14746,0
DA:14747,0
DA:14748,0
DA:14751,0
DA:14752,0
DA:14753,0
DA:14754,0
DA:14756,0
DA:14760,0
DA:14761,0
DA:14762,0
DA:14763,0
DA:14764,0
DA:14765,0
DA:14766,0
DA:14767,0
DA:14768,0
DA:14769,0
DA:14770,0
DA:14771,0
DA:14772,0
DA:14773,0
DA:14774,0
DA:14775,0
DA:14778,0
DA:14779,0
DA:14780,0
DA:14781,0
DA:14783,0
DA:14784,0
DA:14786,0
DA:14787,0
DA:14788,0
DA:14789,0
DA:14790,0
DA:14791,0
DA:14792,0
DA:14794,0
DA:14795,0
DA:14796,0
DA:14797,0
DA:14798,0
DA:14799,0
DA:14801,0
DA:14802,0
DA:14803,0
DA:14804,0
DA:14805,0
DA:14806,0
DA:14807,0
DA:14809,0
DA:14812,0
DA:14813,0
DA:14814,0
DA:14815,0
DA:14816,0
DA:14817,0
DA:14818,0
DA:14819,0
DA:14820,0
DA:14821,0
DA:14822,0
DA:14823,0
DA:14824,0
DA:14825,0
DA:14826,0
DA:14827,0
DA:14828,0
DA:14829,0
DA:14830,0
DA:14834,1
DA:14835,1
DA:14836,0
DA:14837,0
DA:14839,1
DA:14841,0
DA:14842,0
DA:14843,0
DA:14845,0
DA:14846,0
DA:14847,0
DA:14849,0
DA:14850,0
DA:14852,0
DA:14853,0
DA:14854,0
DA:14855,0
DA:14856,0
DA:14857,0
DA:14859,0
DA:14860,0
DA:14861,0
DA:14864,0
DA:14865,0
DA:14866,0
DA:14867,0
DA:14868,0
DA:14869,0
DA:14870,0
DA:14871,0
DA:14874,0
DA:14875,0
DA:14877,0
DA:14878,0
DA:14880,0
DA:14881,0
DA:14883,0
DA:14884,0
DA:14885,0
DA:14886,0
DA:14887,0
DA:14888,0
DA:14889,0
DA:14890,0
DA:14891,0
DA:14892,0
DA:14894,0
DA:14895,0
DA:14897,0
DA:14900,0
DA:14901,0
DA:14902,0
DA:14903,0
DA:14904,0
DA:14906,0
DA:14907,0
DA:14909,0
DA:14911,0
DA:14912,0
DA:14914,0
DA:14915,0
DA:14916,0
DA:14917,0
DA:14918,0
DA:14919,0
DA:14921,0
DA:14922,0
DA:14935,2
DA:14936,2
DA:14940,0
DA:14941,0
DA:14944,0
DA:14946,0
DA:14949,0
DA:14951,0
DA:14952,0
DA:14954,0
DA:14955,0
DA:14960,0
DA:14961,0
DA:14967,0
DA:14970,0
DA:14971,0
DA:14972,0
DA:14975,1
DA:14976,1
DA:14977,1
DA:14978,1
DA:14979,1
DA:14981,1
DA:14982,1
DA:14984,0
DA:14985,0
DA:14987,1
DA:14988,1
DA:15021,0
DA:15022,0
DA:15025,0
DA:15026,0
DA:15031,0
DA:15033,0
DA:15034,0
DA:15035,0
DA:15036,0
DA:15039,0
DA:15040,0
DA:15041,0
DA:15042,0
DA:15043,0
DA:15044,0
DA:15045,0
DA:15049,0
DA:15050,0
DA:15051,0
DA:15054,0
DA:15055,0
DA:15056,0
DA:15057,0
DA:15058,0
DA:15059,0
DA:15060,0
DA:15061,0
DA:15062,0
DA:15063,0
DA:15065,0
DA:15066,0
DA:15074,0
DA:15075,0
DA:15076,0
DA:15079,0
DA:15080,0
DA:15081,0
DA:15082,0
DA:15083,0
DA:15084,0
DA:15085,0
DA:15086,0
DA:15087,0
DA:15088,0
DA:15089,0
DA:15090,0
DA:15093,0
DA:15094,0
DA:15095,0
DA:15098,0
DA:15099,0
DA:15103,0
DA:15104,0
DA:15105,0
DA:15107,0
DA:15110,0
DA:15111,0
DA:15112,0
DA:15114,0
DA:15119,0
DA:15120,0
DA:15121,0
DA:15122,0
DA:15123,0
DA:15125,0
DA:15126,0
DA:15129,0
DA:15130,0
DA:15134,0
DA:15135,0
DA:15136,0
DA:15138,0
DA:15141,0
DA:15142,0
DA:15143,0
DA:15145,0
DA:15152,0
DA:15153,0
DA:15157,0
DA:15158,0
DA:15160,0
DA:15161,0
DA:15163,0
DA:15164,0
DA:15165,0
DA:15166,0
DA:15167,0
DA:15169,0
DA:15170,0
DA:15172,0
DA:15173,0
DA:15175,0
DA:15176,0
DA:15178,0
DA:15179,0
DA:15180,0
DA:15181,0
DA:15182,0
DA:15184,0
DA:15185,0
DA:15187,0
DA:15188,0
DA:15191,0
DA:15192,0
DA:15193,0
DA:15194,0
DA:15195,0
DA:15196,0
DA:15197,0
DA:15198,0
DA:15199,0
DA:15200,0
DA:15201,0
DA:15203,0
DA:15204,0
DA:15205,0
DA:15208,0
DA:15209,0
DA:15211,0
DA:15212,0
DA:15215,0
DA:15216,0
DA:15221,0
DA:15222,0
DA:15227,0
DA:15228,0
DA:15231,0
DA:15232,0
DA:15233,0
DA:15234,0
DA:15235,0
DA:15236,0
DA:15249,3
DA:15250,3
DA:15251,3
DA:15252,3
DA:15253,3
DA:15254,3
DA:15257,3
DA:15258,3
DA:15259,3
DA:15260,3
DA:15261,3
DA:15264,7
DA:15265,7
DA:15267,2
DA:15268,2
DA:15270,0
DA:15271,0
DA:15274,1
DA:15275,1
DA:15276,1
DA:15277,1
DA:15278,1
DA:15281,1
DA:15282,1
DA:15283,1
DA:15284,1
DA:15287,1
DA:15288,1
DA:15289,1
DA:15290,0
DA:15291,1
DA:15292,0
DA:15294,1
DA:15295,1
DA:15340,0
DA:15344,0
DA:15357,0
DA:15362,0
DA:15363,0
DA:15364,0
DA:15365,0
DA:15366,0
DA:15367,0
DA:15368,0
DA:15370,0
DA:15371,0
DA:15372,0
DA:15373,0
DA:15375,0
DA:15376,0
DA:15377,0
DA:15379,0
DA:15382,0
DA:15383,0
DA:15384,0
DA:15393,0
DA:15394,0
DA:15395,0
DA:15396,0
DA:15398,0
DA:15399,0
DA:15400,0
DA:15402,0
DA:15403,0
DA:15404,0
DA:15406,0
DA:15408,0
DA:15409,0
DA:15410,0
DA:15411,0
DA:15412,0
DA:15413,0
DA:15414,0
DA:15415,0
DA:15416,0
DA:15417,0
DA:15418,0
DA:15419,0
DA:15423,0
DA:15424,0
DA:15437,0
DA:15438,0
DA:15439,0
DA:15441,0
DA:15442,0
DA:15444,0
DA:15445,0
DA:15447,0
DA:15450,0
DA:15451,0
DA:15452,0
DA:15454,0
DA:15455,0
DA:15457,0
DA:15458,0
DA:15460,0
DA:15463,0
DA:15464,0
DA:15465,0
DA:15466,0
DA:15467,0
DA:15468,0
DA:15469,0
DA:15471,0
DA:15472,0
DA:15475,0
DA:15476,0
DA:15481,0
DA:15485,0
DA:15488,0
DA:15492,0
DA:15495,0
DA:15496,0
DA:15497,0
DA:15498,0
DA:15500,0
DA:15504,0
DA:15505,0
DA:15506,0
DA:15507,0
DA:15508,0
DA:15510,0
DA:15512,0
DA:15513,0
DA:15515,0
DA:15516,0
DA:15518,0
DA:15519,0
DA:15520,0
DA:15522,0
DA:15523,0
DA:15525,0
DA:15530,0
DA:15531,0
DA:15532,0
DA:15536,0
DA:15537,0
DA:15538,0
DA:15547,0
DA:15549,0
DA:15550,0
DA:15553,0
DA:15555,0
DA:15556,0
DA:15557,0
DA:15562,0
DA:15563,0
DA:15564,0
DA:15565,0
DA:15566,0
DA:15567,0
DA:15570,0
DA:15572,0
DA:15574,0
DA:15575,0
DA:15576,0
DA:15580,0
DA:15581,0
DA:15585,0
DA:15586,0
DA:15588,0
DA:15589,0
DA:15592,0
DA:15594,0
DA:15595,0
DA:15596,0
DA:15599,0
DA:15600,0
DA:15601,0
DA:15602,0
DA:15604,0
DA:15605,0
DA:15606,0
DA:15608,0
DA:15609,0
DA:15610,0
DA:15611,0
DA:15612,0
DA:15613,0
DA:15615,0
DA:15616,0
DA:15617,0
DA:15618,0
DA:15619,0
DA:15622,0
DA:15623,0
DA:15624,0
DA:15626,0
DA:15628,0
DA:15629,0
DA:15630,0
DA:15633,0
DA:15635,0
DA:15636,0
DA:15638,0
DA:15639,0
DA:15640,0
DA:15642,0
DA:15643,0
DA:15645,0
DA:15646,0
DA:15647,0
DA:15648,0
DA:15649,0
DA:15650,0
DA:15652,0
DA:15653,0
DA:15654,0
DA:15655,0
DA:15656,0
DA:15659,0
DA:15660,0
DA:15661,0
DA:15662,0
DA:15663,0
DA:15665,0
DA:15666,0
DA:15668,0
DA:15669,0
DA:15670,0
DA:15672,0
DA:15673,0
DA:15674,0
DA:15676,0
DA:15678,0
DA:15679,0
DA:15680,0
DA:15681,0
DA:15684,0
DA:15685,0
DA:15686,0
DA:15687,0
DA:15690,0
DA:15691,0
DA:15692,0
DA:15695,0
DA:15696,0
DA:15697,0
DA:15698,0
DA:15699,0
DA:15700,0
DA:15702,0
DA:15703,0
DA:15705,0
DA:15708,0
DA:15709,0
DA:15710,0
DA:15711,0
DA:15713,0
DA:15714,0
DA:15715,0
DA:15718,0
DA:15719,0
DA:15720,0
DA:15722,0
DA:15723,0
DA:15724,0
DA:15725,0
DA:15728,0
DA:15729,0
DA:15730,0
DA:15731,0
DA:15732,0
DA:15734,0
DA:15736,0
DA:15737,0
DA:15738,0
DA:15740,0
DA:15741,0
DA:15742,0
DA:15744,0
DA:15745,0
DA:15746,0
DA:15747,0
DA:15749,0
DA:15761,0
DA:15762,0
DA:15763,0
DA:15767,0
DA:15772,0
DA:15776,0
DA:15780,0
DA:15782,0
DA:15783,0
DA:15785,1
DA:15786,1
DA:15787,0
DA:15789,1
DA:15790,0
DA:15792,1
DA:15793,1
DA:15796,0
DA:15797,0
DA:15798,0
DA:15799,0
DA:15801,0
DA:15802,0
DA:15804,0
DA:15806,0
DA:15808,0
DA:15809,0
DA:15811,0
DA:15812,0
DA:15814,0
DA:15815,0
DA:15818,0
DA:15820,0
DA:15821,0
DA:15834,0
DA:15835,0
DA:15839,0
DA:15841,0
DA:15843,0
DA:15856,0
DA:15857,0
DA:15858,0
DA:15859,0
DA:15860,0
DA:15862,0
DA:15863,0
DA:15865,0
DA:15866,0
DA:15867,0
DA:15868,0
DA:15869,0
DA:15871,0
DA:15872,0
DA:15873,0
DA:15874,0
DA:15875,0
DA:15877,0
DA:15878,0
DA:15879,0
DA:15880,0
DA:15882,0
DA:15883,0
DA:15884,0
DA:15885,0
DA:15886,0
DA:15893,0
DA:15894,0
DA:15895,0
DA:15896,0
DA:15897,0
DA:15898,0
DA:15900,0
DA:15901,0
DA:15903,0
DA:15905,0
DA:15906,0
DA:15907,0
DA:15908,0
DA:15909,0
DA:15910,0
DA:15911,0
DA:15913,0
DA:15914,0
DA:15915,0
DA:15916,0
DA:15917,0
DA:15919,0
DA:15920,0
DA:15921,0
DA:15922,0
DA:15923,0
DA:15924,0
DA:15925,0
DA:15926,0
DA:15927,0
DA:15928,0
DA:15929,0
DA:15930,0
DA:15931,0
DA:15932,0
DA:15933,0
DA:15934,0
DA:15935,0
DA:15936,0
DA:15937,0
DA:15938,0
DA:15939,0
DA:15940,0
DA:15941,0
DA:15942,0
DA:15943,0
DA:15944,0
DA:15945,0
DA:15946,0
DA:15947,0
DA:15948,0
DA:15949,0
DA:15950,0
DA:15951,0
DA:15952,0
DA:15953,0
DA:15954,0
DA:15955,0
DA:15956,0
DA:15957,0
DA:15958,0
DA:15960,0
DA:15963,0
DA:15964,0
DA:15966,0
DA:15969,0
DA:15970,0
DA:15971,0
DA:15972,0
DA:15974,0
DA:15975,0
DA:15977,0
DA:15978,0
DA:15979,0
DA:15980,0
DA:15982,0
DA:15984,0
DA:15985,0
DA:15986,0
DA:15988,0
DA:15989,0
DA:15990,0
DA:15992,0
DA:15993,0
DA:15994,0
DA:15995,0
DA:15997,0
DA:15999,0
DA:16000,0
DA:16001,0
DA:16003,0
DA:16005,0
DA:16006,0
DA:16008,0
DA:16009,0
DA:16010,0
DA:16011,0
DA:16013,0
DA:16015,0
DA:16016,0
DA:16017,0
DA:16018,0
DA:16020,0
DA:16022,0
DA:16023,0
DA:16024,0
DA:16026,0
DA:16027,0
DA:16030,0
DA:16031,0
DA:16032,0
DA:16034,0
DA:16036,0
DA:16037,0
DA:16038,0
DA:16039,0
DA:16040,0
DA:16041,0
DA:16042,0
DA:16043,0
DA:16044,0
DA:16058,0
DA:16059,0
DA:16062,0
DA:16063,0
DA:16064,0
DA:16066,0
DA:16068,0
DA:16069,0
DA:16071,0
DA:16074,0
DA:16075,0
DA:16076,0
DA:16077,0
DA:16080,0
DA:16081,0
DA:16083,0
DA:16084,0
DA:16085,0
DA:16087,0
DA:16088,0
DA:16089,0
DA:16090,0
DA:16092,0
DA:16094,0
DA:16095,0
DA:16096,0
DA:16097,0
DA:16098,0
DA:16100,0
DA:16132,0
DA:16133,0
DA:16134,0
DA:16135,0
DA:16136,0
DA:16137,0
DA:16138,0
DA:16139,0
DA:16140,0
DA:16141,0
DA:16142,0
DA:16143,0
DA:16145,0
DA:16146,0
DA:16147,0
DA:16148,0
DA:16149,0
DA:16150,0
DA:16151,0
DA:16152,0
DA:16153,0
DA:16155,0
DA:16156,0
DA:16158,0
DA:16159,0
DA:16160,0
DA:16161,0
DA:16162,0
DA:16163,0
DA:16164,0
DA:16165,0
DA:16166,0
DA:16167,0
DA:16168,0
DA:16169,0
DA:16170,0
DA:16171,0
DA:16172,0
DA:16173,0
DA:16174,0
DA:16175,0
DA:16176,0
DA:16177,0
DA:16178,0
DA:16179,0
DA:16180,0
DA:16181,0
DA:16182,0
DA:16183,0
DA:16184,0
DA:16185,0
DA:16186,0
DA:16187,0
DA:16188,0
DA:16189,0
DA:16190,0
DA:16191,0
DA:16192,0
DA:16193,0
DA:16194,0
DA:16195,0
DA:16197,0
DA:16200,0
DA:16201,0
DA:16202,0
DA:16204,0
DA:16206,0
DA:16207,0
DA:16208,0
DA:16209,0
DA:16210,0
DA:16211,0
DA:16213,0
DA:16215,0
DA:16216,0
DA:16219,0
DA:16220,0
DA:16221,0
DA:16222,0
DA:16223,0
DA:16224,0
DA:16225,0
DA:16226,0
DA:16227,0
DA:16228,0
DA:16229,0
DA:16230,0
DA:16231,0
DA:16232,0
DA:16233,0
DA:16234,0
DA:16235,0
DA:16236,0
DA:16237,0
DA:16238,0
DA:16239,0
DA:16240,0
DA:16241,0
DA:16242,0
DA:16243,0
DA:16245,0
DA:16246,0
DA:16248,0
DA:16249,0
DA:16250,0
DA:16251,0
DA:16252,0
DA:16265,3
DA:16266,3
DA:16267,3
DA:16270,1
DA:16271,1
DA:16272,0
DA:16273,1
DA:16274,0
DA:16276,1
DA:16369,1
DA:16370,1
DA:16371,1
DA:16393,3
DA:16394,3
DA:16395,0
DA:16396,0
DA:16397,0
DA:16399,3
DA:16429,0
DA:16430,0
DA:16431,0
DA:16432,0
DA:16434,0
DA:16438,1
DA:16440,1
DA:16441,1
DA:16442,1
DA:16449,0
DA:16458,5
DA:16460,2
DA:16461,2
DA:16463,0
DA:16464,0
DA:16467,0
DA:16468,0
DA:16469,0
DA:16471,0
DA:16472,0
DA:16473,0
DA:16475,1
DA:16477,0
DA:16478,0
DA:16480,0
DA:16483,0
DA:16484,0
DA:16486,0
DA:16488,0
DA:16489,0
DA:16490,0
DA:16491,0
DA:16492,0
DA:16494,1
DA:16495,1
DA:16496,1
DA:16497,1
DA:16498,1
DA:16499,1
DA:16500,1
DA:16501,1
DA:16502,0
DA:16503,0
DA:16504,0
DA:16505,0
DA:16507,0
DA:16508,0
DA:16509,0
DA:16510,1
DA:16511,1
DA:16512,0
DA:16514,1
DA:16515,0
DA:16517,1
DA:16518,1
DA:16568,1
DA:16569,1
DA:16570,1
DA:16571,1
DA:16572,1
DA:16573,1
DA:16574,1
DA:16575,0
DA:16576,0
DA:16577,0
DA:16578,0
DA:16580,1
DA:16581,1
DA:16582,1
DA:16583,1
DA:16584,1
DA:16585,1
DA:16586,1
DA:16587,1
DA:16588,1
DA:16589,1
DA:16590,1
DA:16591,1
DA:16593,0
DA:16595,0
DA:16596,0
DA:16597,0
DA:16599,0
DA:16601,0
DA:16602,0
DA:16603,0
DA:16604,0
DA:16606,0
DA:16607,0
DA:16608,0
DA:16610,0
DA:16611,0
DA:16612,0
DA:16613,0
DA:16614,0
DA:16615,0
DA:16616,0
DA:16618,0
DA:16619,0
DA:16621,0
DA:16622,0
DA:16623,0
DA:16624,0
DA:16625,0
DA:16626,0
DA:16628,0
DA:16629,0
DA:16630,0
DA:16631,0
DA:16633,0
DA:16634,0
DA:16637,0
DA:16638,0
DA:16639,0
DA:16640,0
DA:16641,0
DA:16643,0
DA:16645,0
DA:16646,0
DA:16647,0
DA:16648,0
DA:16649,0
DA:16651,0
DA:16652,0
DA:16653,0
DA:16654,0
DA:16655,0
DA:16656,0
DA:16658,0
DA:16659,0
DA:16660,0
DA:16661,0
DA:16665,0
DA:16666,0
DA:16667,0
DA:16668,0
DA:16670,0
DA:16671,0
DA:16672,0
DA:16676,0
DA:16677,0
DA:16678,0
DA:16679,0
DA:16680,0
DA:16681,0
DA:16682,0
DA:16683,0
DA:16684,0
DA:16685,0
DA:16686,0
DA:16687,0
DA:16689,0
DA:16690,0
DA:16691,0
DA:16699,1
DA:16700,1
DA:16701,0
DA:16702,1
DA:16703,1
DA:16704,1
DA:16705,2
DA:16706,2
DA:16707,1
DA:16710,0
DA:16711,0
DA:16712,0
DA:16713,0
DA:16714,0
DA:16715,0
DA:16716,0
DA:16717,0
DA:16718,0
DA:16719,0
DA:16720,0
DA:16721,0
DA:16722,0
DA:16724,0
DA:16725,0
DA:16726,0
DA:16727,1
DA:16728,0
DA:16729,0
DA:16730,0
DA:16731,0
DA:16732,0
DA:16733,0
DA:16734,0
DA:16736,0
DA:16737,0
DA:16738,0
DA:16739,0
DA:16740,0
DA:16742,0
DA:16743,0
DA:16744,0
DA:16746,1
DA:16747,1
DA:16748,1
DA:16749,1
DA:16750,1
DA:16751,1
DA:16752,0
DA:16753,2
DA:16754,1
DA:16756,1
DA:16757,1
DA:16758,1
DA:16759,1
DA:16761,0
DA:16763,0
DA:16765,1
DA:16766,1
DA:16767,0
DA:16768,0
DA:16769,0
DA:16771,1
DA:16772,1
DA:16773,0
DA:16774,0
DA:16775,0
DA:16776,1
DA:16801,0
DA:16805,0
DA:16806,0
DA:16813,0
DA:16817,0
DA:16822,0
DA:16824,0
DA:16827,0
DA:16828,0
DA:16830,0
DA:16831,0
DA:16832,0
DA:16833,0
DA:16840,0
DA:16841,0
DA:16842,0
DA:16843,0
DA:16844,0
DA:16848,0
DA:16850,0
DA:16852,0
DA:16853,0
DA:16854,0
DA:16856,0
DA:16858,0
DA:16859,0
DA:16862,0
DA:16864,0
DA:16865,0
DA:16866,0
DA:16867,0
DA:16869,0
DA:16870,0
DA:16871,0
DA:16872,0
DA:16873,0
DA:16874,0
DA:16875,0
DA:16877,0
DA:16878,0
DA:16879,0
DA:16881,0
DA:16882,0
DA:16883,0
DA:16884,0
DA:16887,0
DA:16888,0
DA:16889,0
DA:16890,0
DA:16891,0
DA:16893,0
DA:16894,0
DA:16895,0
DA:16896,0
DA:16897,0
DA:16899,0
DA:16900,0
DA:16901,0
DA:16903,0
DA:16904,0
DA:16906,0
DA:16907,0
DA:16908,0
DA:16909,0
DA:16910,0
DA:16911,0
DA:16912,0
DA:16913,0
DA:16915,0
DA:16916,0
DA:16919,0
DA:16920,0
DA:16921,0
DA:16922,0
DA:16923,0
DA:16924,0
DA:16926,0
DA:16927,0
DA:16928,0
DA:16929,0
DA:16931,0
DA:16934,0
DA:16935,0
DA:16937,0
DA:16938,0
DA:16939,0
DA:16941,0
DA:16942,0
DA:16946,0
DA:16947,0
DA:16949,0
DA:16951,0
DA:16952,0
DA:16953,0
DA:16954,0
DA:16957,0
DA:16958,0
DA:16960,0
DA:16961,0
DA:16963,0
DA:16967,0
DA:16968,0
DA:16969,0
DA:16971,0
DA:16972,0
DA:16973,0
DA:16974,0
DA:16975,0
DA:16976,0
DA:16977,0
DA:16980,0
DA:16981,0
DA:16983,0
DA:16988,0
DA:16990,0
DA:16991,0
DA:16992,0
DA:16995,0
DA:16997,0
DA:16998,0
DA:16999,0
DA:17000,0
DA:17001,0
DA:17002,0
DA:17003,0
DA:17004,0
DA:17006,0
DA:17007,0
DA:17009,0
DA:17010,0
DA:17011,0
DA:17012,0
DA:17014,0
DA:17015,0
DA:17016,0
DA:17017,0
DA:17018,0
DA:17019,0
DA:17021,0
DA:17022,0
DA:17023,0
DA:17026,0
DA:17027,0
DA:17030,0
DA:17036,0
DA:17037,0
DA:17040,0
DA:17042,0
DA:17043,0
DA:17045,0
DA:17046,0
DA:17047,0
DA:17048,0
DA:17049,0
DA:17050,0
DA:17051,0
DA:17053,0
DA:17054,0
DA:17055,0
DA:17058,0
DA:17061,0
DA:17062,0
DA:17063,0
DA:17064,0
DA:17065,0
DA:17067,0
DA:17068,0
DA:17069,0
DA:17070,0
DA:17082,0
DA:17084,0
DA:17085,0
DA:17087,0
DA:17088,0
DA:17089,0
DA:17091,0
DA:17092,0
DA:17093,0
DA:17094,0
DA:17095,0
DA:17097,0
DA:17098,0
DA:17101,0
DA:17102,0
DA:17105,0
DA:17106,0
DA:17107,0
DA:17109,0
DA:17110,0
DA:17112,0
DA:17113,0
DA:17114,0
DA:17116,0
DA:17117,0
DA:17147,0
DA:17148,0
DA:17149,0
DA:17151,0
DA:17152,0
DA:17154,0
DA:17155,0
DA:17156,0
DA:17158,0
DA:17159,0
DA:17161,0
DA:17162,0
DA:17163,0
DA:17165,0
DA:17166,0
DA:17168,0
DA:17169,0
DA:17170,0
DA:17172,0
DA:17173,0
DA:17175,0
DA:17176,0
DA:17177,0
DA:17179,0
DA:17180,0
DA:17183,0
DA:17184,0
DA:17185,0
DA:17187,0
DA:17190,0
DA:17191,0
DA:17192,0
DA:17194,0
DA:17195,0
DA:17197,0
DA:17198,0
DA:17199,0
DA:17201,0
DA:17202,0
DA:17204,0
DA:17205,0
DA:17206,0
DA:17208,0
DA:17209,0
DA:17211,0
DA:17212,0
DA:17213,0
DA:17215,0
DA:17216,0
DA:17218,0
DA:17219,0
DA:17220,0
DA:17222,0
DA:17223,0
DA:17225,0
DA:17226,0
DA:17241,0
DA:17243,0
DA:17245,0
DA:17246,0
DA:17247,0
DA:17249,0
DA:17251,0
DA:17252,0
DA:17255,0
DA:17256,0
DA:17259,0
DA:17261,0
DA:17262,0
DA:17263,0
DA:17265,0
DA:17266,0
DA:17267,0
DA:17269,0
DA:17270,0
DA:17271,0
DA:17272,0
DA:17273,0
DA:17274,0
DA:17275,0
DA:17276,0
DA:17277,0
DA:17278,0
DA:17279,0
DA:17280,0
DA:17281,0
DA:17282,0
DA:17284,0
DA:17285,0
DA:17286,0
DA:17287,0
DA:17288,0
DA:17290,0
DA:17291,0
DA:17292,0
DA:17293,0
DA:17294,0
DA:17295,0
DA:17297,0
DA:17299,0
DA:17300,0
DA:17301,0
DA:17302,0
DA:17304,0
DA:17305,0
DA:17306,0
DA:17307,0
DA:17308,0
DA:17309,0
DA:17310,0
DA:17312,0
DA:17314,0
DA:17316,0
DA:17318,0
DA:17320,0
DA:17322,0
DA:17324,0
DA:17325,0
DA:17326,0
DA:17327,0
DA:17328,0
DA:17329,0
DA:17330,0
DA:17336,0
DA:17337,0
DA:17340,0
DA:17341,0
DA:17342,0
DA:17343,0
DA:17345,0
DA:17347,0
DA:17348,0
DA:17349,0
DA:17350,0
DA:17354,0
DA:17355,0
DA:17356,0
DA:17357,0
DA:17358,0
DA:17359,0
DA:17360,0
DA:17361,0
DA:17362,0
DA:17363,0
DA:17364,0
DA:17365,0
DA:17366,0
DA:17367,0
DA:17368,0
DA:17369,0
DA:17370,0
DA:17371,0
DA:17373,0
DA:17374,0
DA:17375,0
DA:17376,0
DA:17377,0
DA:17378,0
DA:17379,0
DA:17380,0
DA:17381,0
DA:17384,0
DA:17385,0
DA:17387,0
DA:17390,0
DA:17391,0
DA:17392,0
DA:17393,0
DA:17394,0
DA:17395,0
DA:17396,0
DA:17398,0
DA:17399,0
DA:17401,0
DA:17402,0
DA:17403,0
DA:17405,0
DA:17406,0
DA:17407,0
DA:17408,0
DA:17410,0
DA:17411,0
DA:17413,0
DA:17414,0
DA:17415,0
DA:17416,0
DA:17418,0
DA:17419,0
DA:17421,0
DA:17422,0
DA:17424,0
DA:17425,0
DA:17426,0
DA:17427,0
DA:17428,0
DA:17429,0
DA:17430,0
DA:17431,0
DA:17432,0
DA:17433,0
DA:17435,0
DA:17436,0
DA:17437,0
DA:17438,0
DA:17439,0
DA:17440,0
DA:17441,0
DA:17442,0
DA:17443,0
DA:17444,0
DA:17445,0
DA:17446,0
DA:17523,1
DA:17526,1
LF:4781
LH:1203
end_of_record
TN:
SF:/home/user/Desktop/assgn5/problem1/src/hello_world.cpp
FN:2,_Z17print_hello_worldb
FNDA:1,_Z17print_hello_worldb
FNF:1
FNH:1
DA:2,1
DA:4,1
DA:6,1
DA:10,0
DA:12,1
DA:13,1
LF:6
LH:5
end_of_record
